---
triple:          'arm64-apple-darwin'
binary-path:     '/Users/tomerantebi/Documents/rpgGame/game/src/game'
relocations:
  - { offset: 0x26, size: 0x8, addend: 0x0, symName: _main, symObjAddr: 0x0, symBinAddr: 0x100003998, symSize: 0x64 }
  - { offset: 0x135B7, size: 0x8, addend: 0x0, symName: _main, symObjAddr: 0x0, symBinAddr: 0x100003998, symSize: 0x64 }
  - { offset: 0x1B03A, size: 0x8, addend: 0x0, symName: __ZNSt3__1neB8ne180100ERKNS_14__map_iteratorINS_15__tree_iteratorINS_12__value_typeINS_12basic_stringIcNS_11char_traitsIcEENS_9allocatorIcEEEEPN2sf7TextureEEEPNS_11__tree_nodeISC_PvEElEEEESK_, symObjAddr: 0x308, symBinAddr: 0x100003D04, symSize: 0x2C }
  - { offset: 0x1B137, size: 0x8, addend: 0x0, symName: __ZNSt3__112__destroy_atB8ne180100INS_4pairIKNS_12basic_stringIcNS_11char_traitsIcEENS_9allocatorIcEEEEiEETnNS_9enable_ifIXntsr8is_arrayIT_EE5valueEiE4typeELi0EEEvPSB_, symObjAddr: 0xEE8, symBinAddr: 0x1000048E4, symSize: 0x24 }
  - { offset: 0x1B16E, size: 0x8, addend: 0x0, symName: __ZNSt3__17launderB8ne180100INS_4pairIKNS_12basic_stringIcNS_11char_traitsIcEENS_9allocatorIcEEEEiEEEEPT_SB_, symObjAddr: 0xF88, symBinAddr: 0x100004984, symSize: 0x24 }
  - { offset: 0x1B1A5, size: 0x8, addend: 0x0, symName: __ZNSt3__19__launderB8ne180100INS_4pairIKNS_12basic_stringIcNS_11char_traitsIcEENS_9allocatorIcEEEEiEEEEPT_SB_, symObjAddr: 0xFAC, symBinAddr: 0x1000049A8, symSize: 0x14 }
  - { offset: 0x1B1DC, size: 0x8, addend: 0x0, symName: __ZNSt3__119__libcpp_deallocateB8ne180100EPvmm, symObjAddr: 0x1000, symBinAddr: 0x1000049FC, symSize: 0x60 }
  - { offset: 0x1B241, size: 0x8, addend: 0x0, symName: __ZNSt3__124__is_overaligned_for_newB8ne180100Em, symObjAddr: 0x1060, symBinAddr: 0x100004A5C, symSize: 0x1C }
  - { offset: 0x1B26F, size: 0x8, addend: 0x0, symName: __ZNSt3__127__do_deallocate_handle_sizeB8ne180100IJSt11align_val_tEEEvPvmDpT_, symObjAddr: 0x107C, symBinAddr: 0x100004A78, symSize: 0x30 }
  - { offset: 0x1B2C4, size: 0x8, addend: 0x0, symName: __ZNSt3__127__do_deallocate_handle_sizeB8ne180100IJEEEvPvmDpT_, symObjAddr: 0x10AC, symBinAddr: 0x100004AA8, symSize: 0x28 }
  - { offset: 0x1B303, size: 0x8, addend: 0x0, symName: __ZNSt3__124__libcpp_operator_deleteB8ne180100IJPvSt11align_val_tEEEvDpT_, symObjAddr: 0x10D4, symBinAddr: 0x100004AD0, symSize: 0x2C }
  - { offset: 0x1B34F, size: 0x8, addend: 0x0, symName: __ZNSt3__124__libcpp_operator_deleteB8ne180100IJPvEEEvDpT_, symObjAddr: 0x1100, symBinAddr: 0x100004AFC, symSize: 0x24 }
  - { offset: 0x1B413, size: 0x8, addend: 0x0, symName: __ZNSt3__112__destroy_atB8ne180100INS_4pairIKNS_12basic_stringIcNS_11char_traitsIcEENS_9allocatorIcEEEEPN2sf7TextureEEETnNS_9enable_ifIXntsr8is_arrayIT_EE5valueEiE4typeELi0EEEvPSE_, symObjAddr: 0x13C4, symBinAddr: 0x100004DC0, symSize: 0x24 }
  - { offset: 0x1B44A, size: 0x8, addend: 0x0, symName: __ZNSt3__17launderB8ne180100INS_4pairIKNS_12basic_stringIcNS_11char_traitsIcEENS_9allocatorIcEEEEPN2sf7TextureEEEEEPT_SE_, symObjAddr: 0x1464, symBinAddr: 0x100004E60, symSize: 0x24 }
  - { offset: 0x1B481, size: 0x8, addend: 0x0, symName: __ZNSt3__19__launderB8ne180100INS_4pairIKNS_12basic_stringIcNS_11char_traitsIcEENS_9allocatorIcEEEEPN2sf7TextureEEEEEPT_SE_, symObjAddr: 0x1488, symBinAddr: 0x100004E84, symSize: 0x14 }
  - { offset: 0x1B4B8, size: 0x8, addend: 0x0, symName: __ZNSt3__1neB8ne180100ERKNS_15__tree_iteratorINS_12__value_typeINS_12basic_stringIcNS_11char_traitsIcEENS_9allocatorIcEEEEPN2sf7TextureEEEPNS_11__tree_nodeISB_PvEElEESI_, symObjAddr: 0x163C, symBinAddr: 0x100005038, symSize: 0x30 }
  - { offset: 0x1B4F5, size: 0x8, addend: 0x0, symName: __ZNSt3__1eqB8ne180100ERKNS_15__tree_iteratorINS_12__value_typeINS_12basic_stringIcNS_11char_traitsIcEENS_9allocatorIcEEEEPN2sf7TextureEEEPNS_11__tree_nodeISB_PvEElEESI_, symObjAddr: 0x166C, symBinAddr: 0x100005068, symSize: 0x2C }
  - { offset: 0x1B533, size: 0x8, addend: 0x0, symName: __ZNSt3__116__tree_next_iterB8ne180100IPNS_15__tree_end_nodeIPNS_16__tree_node_baseIPvEEEES5_EET_T0_, symObjAddr: 0x16D0, symBinAddr: 0x1000050CC, symSize: 0x88 }
  - { offset: 0x1B572, size: 0x8, addend: 0x0, symName: __ZNSt3__110__tree_minB8ne180100IPNS_16__tree_node_baseIPvEEEET_S5_, symObjAddr: 0x1758, symBinAddr: 0x100005154, symSize: 0x38 }
  - { offset: 0x1B5A8, size: 0x8, addend: 0x0, symName: __ZNSt3__120__tree_is_left_childB8ne180100IPNS_16__tree_node_baseIPvEEEEbT_, symObjAddr: 0x1790, symBinAddr: 0x10000518C, symSize: 0x28 }
  - { offset: 0x1B611, size: 0x8, addend: 0x0, symName: __ZNSt3__120__throw_out_of_rangeB8ne180100EPKc, symObjAddr: 0x1994, symBinAddr: 0x100005390, symSize: 0x64 }
  - { offset: 0x1B639, size: 0x8, addend: 0x0, symName: __ZNSt3__1ltB8ne180100IcNS_11char_traitsIcEENS_9allocatorIcEEEEbRKNS_12basic_stringIT_T0_T1_EESB_, symObjAddr: 0x1B60, symBinAddr: 0x10000555C, symSize: 0x34 }
  - { offset: 0x1B692, size: 0x8, addend: 0x0, symName: __ZNSt3__13minB8ne180100ImEERKT_S3_S3_, symObjAddr: 0x1E2C, symBinAddr: 0x100005828, symSize: 0x2C }
  - { offset: 0x1B6D6, size: 0x8, addend: 0x0, symName: __ZNSt3__112__to_addressB8ne180100IKcEEPT_S3_, symObjAddr: 0x1F20, symBinAddr: 0x10000591C, symSize: 0x14 }
  - { offset: 0x1B73F, size: 0x8, addend: 0x0, symName: __ZNSt3__13minB8ne180100ImNS_6__lessIvvEEEERKT_S5_S5_T0_, symObjAddr: 0x1FEC, symBinAddr: 0x1000059E8, symSize: 0x54 }
  - { offset: 0x1B7E0, size: 0x8, addend: 0x0, symName: __ZNSt3__17launderB8ne180100IKNS_4pairIKNS_12basic_stringIcNS_11char_traitsIcEENS_9allocatorIcEEEEiEEEEPT_SC_, symObjAddr: 0x20D8, symBinAddr: 0x100005AD4, symSize: 0x24 }
  - { offset: 0x1B817, size: 0x8, addend: 0x0, symName: __ZNSt3__19__launderB8ne180100IKNS_4pairIKNS_12basic_stringIcNS_11char_traitsIcEENS_9allocatorIcEEEEiEEEEPT_SC_, symObjAddr: 0x20FC, symBinAddr: 0x100005AF8, symSize: 0x14 }
  - { offset: 0x1B84F, size: 0x8, addend: 0x0, symName: __ZNSt3__118__constexpr_strlenB8ne180100EPKc, symObjAddr: 0x230C, symBinAddr: 0x100005D08, symSize: 0x24 }
  - { offset: 0x1CE64, size: 0x8, addend: 0x0, symName: __ZN5StateC2EPN2sf12RenderWindowEPNSt3__13mapINS3_12basic_stringIcNS3_11char_traitsIcEENS3_9allocatorIcEEEEiNS3_4lessISA_EENS8_INS3_4pairIKSA_iEEEEEEPNS3_5stackIPS_NS3_5dequeISK_NS8_ISK_EEEEEE, symObjAddr: 0x0, symBinAddr: 0x1000039FC, symSize: 0xC8 }
  - { offset: 0x1CEBA, size: 0x8, addend: 0x0, symName: __ZNSt3__13mapINS_12basic_stringIcNS_11char_traitsIcEENS_9allocatorIcEEEEiNS_4lessIS6_EENS4_INS_4pairIKS6_iEEEEEC1B8ne180100Ev, symObjAddr: 0xC8, symBinAddr: 0x100003AC4, symSize: 0x2C }
  - { offset: 0x1CEE4, size: 0x8, addend: 0x0, symName: __ZN2sf7Vector2IiEC1Ev, symObjAddr: 0xF4, symBinAddr: 0x100003AF0, symSize: 0x2C }
  - { offset: 0x1CF10, size: 0x8, addend: 0x0, symName: __ZN2sf7Vector2IfEC1Ev, symObjAddr: 0x120, symBinAddr: 0x100003B1C, symSize: 0x2C }
  - { offset: 0x1CF3C, size: 0x8, addend: 0x0, symName: __ZNSt3__13mapINS_12basic_stringIcNS_11char_traitsIcEENS_9allocatorIcEEEEPN2sf7TextureENS_4lessIS6_EENS4_INS_4pairIKS6_S9_EEEEEC1B8ne180100Ev, symObjAddr: 0x14C, symBinAddr: 0x100003B48, symSize: 0x2C }
  - { offset: 0x1CF66, size: 0x8, addend: 0x0, symName: __ZNSt3__13mapINS_12basic_stringIcNS_11char_traitsIcEENS_9allocatorIcEEEEiNS_4lessIS6_EENS4_INS_4pairIKS6_iEEEEED1B8ne180100Ev, symObjAddr: 0x178, symBinAddr: 0x100003B74, symSize: 0x2C }
  - { offset: 0x1CF90, size: 0x8, addend: 0x0, symName: __ZN5StateD2Ev, symObjAddr: 0x1A4, symBinAddr: 0x100003BA0, symSize: 0xF4 }
  - { offset: 0x1D006, size: 0x8, addend: 0x0, symName: __ZNSt3__13mapINS_12basic_stringIcNS_11char_traitsIcEENS_9allocatorIcEEEEPN2sf7TextureENS_4lessIS6_EENS4_INS_4pairIKS6_S9_EEEEE5beginB8ne180100Ev, symObjAddr: 0x298, symBinAddr: 0x100003C94, symSize: 0x38 }
  - { offset: 0x1D02C, size: 0x8, addend: 0x0, symName: __ZNSt3__13mapINS_12basic_stringIcNS_11char_traitsIcEENS_9allocatorIcEEEEPN2sf7TextureENS_4lessIS6_EENS4_INS_4pairIKS6_S9_EEEEE3endB8ne180100Ev, symObjAddr: 0x2D0, symBinAddr: 0x100003CCC, symSize: 0x38 }
  - { offset: 0x1D052, size: 0x8, addend: 0x0, symName: __ZNKSt3__114__map_iteratorINS_15__tree_iteratorINS_12__value_typeINS_12basic_stringIcNS_11char_traitsIcEENS_9allocatorIcEEEEPN2sf7TextureEEEPNS_11__tree_nodeISC_PvEElEEEdeB8ne180100Ev, symObjAddr: 0x344, symBinAddr: 0x100003D40, symSize: 0x28 }
  - { offset: 0x1D078, size: 0x8, addend: 0x0, symName: __ZNSt3__114__map_iteratorINS_15__tree_iteratorINS_12__value_typeINS_12basic_stringIcNS_11char_traitsIcEENS_9allocatorIcEEEEPN2sf7TextureEEEPNS_11__tree_nodeISC_PvEElEEEppB8ne180100Ev, symObjAddr: 0x36C, symBinAddr: 0x100003D68, symSize: 0x2C }
  - { offset: 0x1D09E, size: 0x8, addend: 0x0, symName: __ZNSt3__13mapINS_12basic_stringIcNS_11char_traitsIcEENS_9allocatorIcEEEEPN2sf7TextureENS_4lessIS6_EENS4_INS_4pairIKS6_S9_EEEEED1B8ne180100Ev, symObjAddr: 0x398, symBinAddr: 0x100003D94, symSize: 0x2C }
  - { offset: 0x1D0C8, size: 0x8, addend: 0x0, symName: __ZN5StateD1Ev, symObjAddr: 0x3C4, symBinAddr: 0x100003DC0, symSize: 0x14 }
  - { offset: 0x1D0F4, size: 0x8, addend: 0x0, symName: __ZN5StateD0Ev, symObjAddr: 0x3D8, symBinAddr: 0x100003DD4, symSize: 0xC }
  - { offset: 0x1D120, size: 0x8, addend: 0x0, symName: __ZN5State12checkForQuitEv, symObjAddr: 0x3E4, symBinAddr: 0x100003DE0, symSize: 0xA8 }
  - { offset: 0x1D148, size: 0x8, addend: 0x0, symName: __ZNSt3__13mapINS_12basic_stringIcNS_11char_traitsIcEENS_9allocatorIcEEEEiNS_4lessIS6_EENS4_INS_4pairIKS6_iEEEEE2atERSA_, symObjAddr: 0x48C, symBinAddr: 0x100003E88, symSize: 0x64 }
  - { offset: 0x1D1A2, size: 0x8, addend: 0x0, symName: __ZNSt3__112basic_stringIcNS_11char_traitsIcEENS_9allocatorIcEEEC1B8ne180100ILi0EEEPKc, symObjAddr: 0x4F0, symBinAddr: 0x100003EEC, symSize: 0x34 }
  - { offset: 0x1D1E1, size: 0x8, addend: 0x0, symName: __ZN5State20updateMousePositionsEv, symObjAddr: 0x524, symBinAddr: 0x100003F20, symSize: 0x88 }
  - { offset: 0x1D209, size: 0x8, addend: 0x0, symName: __ZN5State7getQuitEv, symObjAddr: 0x5AC, symBinAddr: 0x100003FA8, symSize: 0x18 }
  - { offset: 0x1D231, size: 0x8, addend: 0x0, symName: __ZNSt3__13mapINS_12basic_stringIcNS_11char_traitsIcEENS_9allocatorIcEEEEiNS_4lessIS6_EENS4_INS_4pairIKS6_iEEEEEC2B8ne180100Ev, symObjAddr: 0x5C4, symBinAddr: 0x100003FC0, symSize: 0x40 }
  - { offset: 0x1D25B, size: 0x8, addend: 0x0, symName: __ZNSt3__119__map_value_compareINS_12basic_stringIcNS_11char_traitsIcEENS_9allocatorIcEEEENS_12__value_typeIS6_iEENS_4lessIS6_EELb1EEC1B8ne180100ESA_, symObjAddr: 0x604, symBinAddr: 0x100004000, symSize: 0x2C }
  - { offset: 0x1D294, size: 0x8, addend: 0x0, symName: __ZNSt3__16__treeINS_12__value_typeINS_12basic_stringIcNS_11char_traitsIcEENS_9allocatorIcEEEEiEENS_19__map_value_compareIS7_S8_NS_4lessIS7_EELb1EEENS5_IS8_EEEC1ERKSC_, symObjAddr: 0x630, symBinAddr: 0x10000402C, symSize: 0x34 }
  - { offset: 0x1D2CF, size: 0x8, addend: 0x0, symName: __ZNSt3__119__map_value_compareINS_12basic_stringIcNS_11char_traitsIcEENS_9allocatorIcEEEENS_12__value_typeIS6_iEENS_4lessIS6_EELb1EEC2B8ne180100ESA_, symObjAddr: 0x664, symBinAddr: 0x100004060, symSize: 0x14 }
  - { offset: 0x1D308, size: 0x8, addend: 0x0, symName: __ZNSt3__16__treeINS_12__value_typeINS_12basic_stringIcNS_11char_traitsIcEENS_9allocatorIcEEEEiEENS_19__map_value_compareIS7_S8_NS_4lessIS7_EELb1EEENS5_IS8_EEEC2ERKSC_, symObjAddr: 0x678, symBinAddr: 0x100004074, symSize: 0x7C }
  - { offset: 0x1D343, size: 0x8, addend: 0x0, symName: __ZNSt3__117__compressed_pairINS_15__tree_end_nodeIPNS_16__tree_node_baseIPvEEEENS_9allocatorINS_11__tree_nodeINS_12__value_typeINS_12basic_stringIcNS_11char_traitsIcEENS7_IcEEEEiEES3_EEEEEC1B8ne180100ILb1EvEEv, symObjAddr: 0x6F4, symBinAddr: 0x1000040F0, symSize: 0x2C }
  - { offset: 0x1D37D, size: 0x8, addend: 0x0, symName: __ZNSt3__117__compressed_pairImNS_19__map_value_compareINS_12basic_stringIcNS_11char_traitsIcEENS_9allocatorIcEEEENS_12__value_typeIS7_iEENS_4lessIS7_EELb1EEEEC1B8ne180100IiRKSC_EEOT_OT0_, symObjAddr: 0x720, symBinAddr: 0x10000411C, symSize: 0x3C }
  - { offset: 0x1D3D5, size: 0x8, addend: 0x0, symName: __ZNSt3__16__treeINS_12__value_typeINS_12basic_stringIcNS_11char_traitsIcEENS_9allocatorIcEEEEiEENS_19__map_value_compareIS7_S8_NS_4lessIS7_EELb1EEENS5_IS8_EEE10__end_nodeB8ne180100Ev, symObjAddr: 0x75C, symBinAddr: 0x100004158, symSize: 0x2C }
  - { offset: 0x1D3FB, size: 0x8, addend: 0x0, symName: __ZNSt3__16__treeINS_12__value_typeINS_12basic_stringIcNS_11char_traitsIcEENS_9allocatorIcEEEEiEENS_19__map_value_compareIS7_S8_NS_4lessIS7_EELb1EEENS5_IS8_EEE12__begin_nodeB8ne180100Ev, symObjAddr: 0x788, symBinAddr: 0x100004184, symSize: 0x14 }
  - { offset: 0x1D421, size: 0x8, addend: 0x0, symName: __ZNSt3__117__compressed_pairINS_15__tree_end_nodeIPNS_16__tree_node_baseIPvEEEENS_9allocatorINS_11__tree_nodeINS_12__value_typeINS_12basic_stringIcNS_11char_traitsIcEENS7_IcEEEEiEES3_EEEEEC2B8ne180100ILb1EvEEv, symObjAddr: 0x79C, symBinAddr: 0x100004198, symSize: 0x34 }
  - { offset: 0x1D456, size: 0x8, addend: 0x0, symName: __ZNSt3__122__compressed_pair_elemINS_15__tree_end_nodeIPNS_16__tree_node_baseIPvEEEELi0ELb0EEC2B8ne180100ENS_16__value_init_tagE, symObjAddr: 0x7D0, symBinAddr: 0x1000041CC, symSize: 0x2C }
  - { offset: 0x1D48B, size: 0x8, addend: 0x0, symName: __ZNSt3__122__compressed_pair_elemINS_9allocatorINS_11__tree_nodeINS_12__value_typeINS_12basic_stringIcNS_11char_traitsIcEENS1_IcEEEEiEEPvEEEELi1ELb1EEC2B8ne180100ENS_16__value_init_tagE, symObjAddr: 0x7FC, symBinAddr: 0x1000041F8, symSize: 0x2C }
  - { offset: 0x1D4C0, size: 0x8, addend: 0x0, symName: __ZNSt3__115__tree_end_nodeIPNS_16__tree_node_baseIPvEEEC1B8ne180100Ev, symObjAddr: 0x828, symBinAddr: 0x100004224, symSize: 0x2C }
  - { offset: 0x1D4EA, size: 0x8, addend: 0x0, symName: __ZNSt3__115__tree_end_nodeIPNS_16__tree_node_baseIPvEEEC2B8ne180100Ev, symObjAddr: 0x854, symBinAddr: 0x100004250, symSize: 0x18 }
  - { offset: 0x1D514, size: 0x8, addend: 0x0, symName: __ZNSt3__19allocatorINS_11__tree_nodeINS_12__value_typeINS_12basic_stringIcNS_11char_traitsIcEENS0_IcEEEEiEEPvEEEC2B8ne180100Ev, symObjAddr: 0x86C, symBinAddr: 0x100004268, symSize: 0x2C }
  - { offset: 0x1D53E, size: 0x8, addend: 0x0, symName: __ZNSt3__116__non_trivial_ifILb1ENS_9allocatorINS_11__tree_nodeINS_12__value_typeINS_12basic_stringIcNS_11char_traitsIcEENS1_IcEEEEiEEPvEEEEEC2B8ne180100Ev, symObjAddr: 0x898, symBinAddr: 0x100004294, symSize: 0x14 }
  - { offset: 0x1D568, size: 0x8, addend: 0x0, symName: __ZNSt3__117__compressed_pairImNS_19__map_value_compareINS_12basic_stringIcNS_11char_traitsIcEENS_9allocatorIcEEEENS_12__value_typeIS7_iEENS_4lessIS7_EELb1EEEEC2B8ne180100IiRKSC_EEOT_OT0_, symObjAddr: 0x8AC, symBinAddr: 0x1000042A8, symSize: 0x44 }
  - { offset: 0x1D5C0, size: 0x8, addend: 0x0, symName: __ZNSt3__122__compressed_pair_elemImLi0ELb0EEC2B8ne180100IivEEOT_, symObjAddr: 0x8F0, symBinAddr: 0x1000042EC, symSize: 0x24 }
  - { offset: 0x1D602, size: 0x8, addend: 0x0, symName: __ZNSt3__122__compressed_pair_elemINS_19__map_value_compareINS_12basic_stringIcNS_11char_traitsIcEENS_9allocatorIcEEEENS_12__value_typeIS7_iEENS_4lessIS7_EELb1EEELi1ELb1EEC2B8ne180100IRKSC_vEEOT_, symObjAddr: 0x914, symBinAddr: 0x100004310, symSize: 0x18 }
  - { offset: 0x1D644, size: 0x8, addend: 0x0, symName: __ZNSt3__114pointer_traitsIPNS_15__tree_end_nodeIPNS_16__tree_node_baseIPvEEEEE10pointer_toB8ne180100ERS6_, symObjAddr: 0x92C, symBinAddr: 0x100004328, symSize: 0x14 }
  - { offset: 0x1D667, size: 0x8, addend: 0x0, symName: __ZNSt3__117__compressed_pairINS_15__tree_end_nodeIPNS_16__tree_node_baseIPvEEEENS_9allocatorINS_11__tree_nodeINS_12__value_typeINS_12basic_stringIcNS_11char_traitsIcEENS7_IcEEEEiEES3_EEEEE5firstB8ne180100Ev, symObjAddr: 0x940, symBinAddr: 0x10000433C, symSize: 0x24 }
  - { offset: 0x1D68D, size: 0x8, addend: 0x0, symName: __ZNSt3__122__compressed_pair_elemINS_15__tree_end_nodeIPNS_16__tree_node_baseIPvEEEELi0ELb0EE5__getB8ne180100Ev, symObjAddr: 0x964, symBinAddr: 0x100004360, symSize: 0x14 }
  - { offset: 0x1D6B3, size: 0x8, addend: 0x0, symName: __ZN2sf7Vector2IiEC2Ev, symObjAddr: 0x978, symBinAddr: 0x100004374, symSize: 0x1C }
  - { offset: 0x1D6DF, size: 0x8, addend: 0x0, symName: __ZN2sf7Vector2IfEC2Ev, symObjAddr: 0x994, symBinAddr: 0x100004390, symSize: 0x20 }
  - { offset: 0x1D70B, size: 0x8, addend: 0x0, symName: __ZNSt3__13mapINS_12basic_stringIcNS_11char_traitsIcEENS_9allocatorIcEEEEPN2sf7TextureENS_4lessIS6_EENS4_INS_4pairIKS6_S9_EEEEEC2B8ne180100Ev, symObjAddr: 0x9B4, symBinAddr: 0x1000043B0, symSize: 0x40 }
  - { offset: 0x1D735, size: 0x8, addend: 0x0, symName: __ZNSt3__119__map_value_compareINS_12basic_stringIcNS_11char_traitsIcEENS_9allocatorIcEEEENS_12__value_typeIS6_PN2sf7TextureEEENS_4lessIS6_EELb1EEC1B8ne180100ESD_, symObjAddr: 0x9F4, symBinAddr: 0x1000043F0, symSize: 0x2C }
  - { offset: 0x1D76E, size: 0x8, addend: 0x0, symName: __ZNSt3__16__treeINS_12__value_typeINS_12basic_stringIcNS_11char_traitsIcEENS_9allocatorIcEEEEPN2sf7TextureEEENS_19__map_value_compareIS7_SB_NS_4lessIS7_EELb1EEENS5_ISB_EEEC1ERKSF_, symObjAddr: 0xA20, symBinAddr: 0x10000441C, symSize: 0x34 }
  - { offset: 0x1D7A9, size: 0x8, addend: 0x0, symName: __ZNSt3__119__map_value_compareINS_12basic_stringIcNS_11char_traitsIcEENS_9allocatorIcEEEENS_12__value_typeIS6_PN2sf7TextureEEENS_4lessIS6_EELb1EEC2B8ne180100ESD_, symObjAddr: 0xA54, symBinAddr: 0x100004450, symSize: 0x14 }
  - { offset: 0x1D7E2, size: 0x8, addend: 0x0, symName: __ZNSt3__16__treeINS_12__value_typeINS_12basic_stringIcNS_11char_traitsIcEENS_9allocatorIcEEEEPN2sf7TextureEEENS_19__map_value_compareIS7_SB_NS_4lessIS7_EELb1EEENS5_ISB_EEEC2ERKSF_, symObjAddr: 0xA68, symBinAddr: 0x100004464, symSize: 0x7C }
  - { offset: 0x1D81D, size: 0x8, addend: 0x0, symName: __ZNSt3__117__compressed_pairINS_15__tree_end_nodeIPNS_16__tree_node_baseIPvEEEENS_9allocatorINS_11__tree_nodeINS_12__value_typeINS_12basic_stringIcNS_11char_traitsIcEENS7_IcEEEEPN2sf7TextureEEES3_EEEEEC1B8ne180100ILb1EvEEv, symObjAddr: 0xAE4, symBinAddr: 0x1000044E0, symSize: 0x2C }
  - { offset: 0x1D852, size: 0x8, addend: 0x0, symName: __ZNSt3__117__compressed_pairImNS_19__map_value_compareINS_12basic_stringIcNS_11char_traitsIcEENS_9allocatorIcEEEENS_12__value_typeIS7_PN2sf7TextureEEENS_4lessIS7_EELb1EEEEC1B8ne180100IiRKSF_EEOT_OT0_, symObjAddr: 0xB10, symBinAddr: 0x10000450C, symSize: 0x3C }
  - { offset: 0x1D8AA, size: 0x8, addend: 0x0, symName: __ZNSt3__16__treeINS_12__value_typeINS_12basic_stringIcNS_11char_traitsIcEENS_9allocatorIcEEEEPN2sf7TextureEEENS_19__map_value_compareIS7_SB_NS_4lessIS7_EELb1EEENS5_ISB_EEE10__end_nodeB8ne180100Ev, symObjAddr: 0xB4C, symBinAddr: 0x100004548, symSize: 0x2C }
  - { offset: 0x1D8D0, size: 0x8, addend: 0x0, symName: __ZNSt3__16__treeINS_12__value_typeINS_12basic_stringIcNS_11char_traitsIcEENS_9allocatorIcEEEEPN2sf7TextureEEENS_19__map_value_compareIS7_SB_NS_4lessIS7_EELb1EEENS5_ISB_EEE12__begin_nodeB8ne180100Ev, symObjAddr: 0xB78, symBinAddr: 0x100004574, symSize: 0x14 }
  - { offset: 0x1D8F6, size: 0x8, addend: 0x0, symName: __ZNSt3__117__compressed_pairINS_15__tree_end_nodeIPNS_16__tree_node_baseIPvEEEENS_9allocatorINS_11__tree_nodeINS_12__value_typeINS_12basic_stringIcNS_11char_traitsIcEENS7_IcEEEEPN2sf7TextureEEES3_EEEEEC2B8ne180100ILb1EvEEv, symObjAddr: 0xB8C, symBinAddr: 0x100004588, symSize: 0x34 }
  - { offset: 0x1D92B, size: 0x8, addend: 0x0, symName: __ZNSt3__122__compressed_pair_elemINS_9allocatorINS_11__tree_nodeINS_12__value_typeINS_12basic_stringIcNS_11char_traitsIcEENS1_IcEEEEPN2sf7TextureEEEPvEEEELi1ELb1EEC2B8ne180100ENS_16__value_init_tagE, symObjAddr: 0xBC0, symBinAddr: 0x1000045BC, symSize: 0x2C }
  - { offset: 0x1D960, size: 0x8, addend: 0x0, symName: __ZNSt3__19allocatorINS_11__tree_nodeINS_12__value_typeINS_12basic_stringIcNS_11char_traitsIcEENS0_IcEEEEPN2sf7TextureEEEPvEEEC2B8ne180100Ev, symObjAddr: 0xBEC, symBinAddr: 0x1000045E8, symSize: 0x2C }
  - { offset: 0x1D98A, size: 0x8, addend: 0x0, symName: __ZNSt3__116__non_trivial_ifILb1ENS_9allocatorINS_11__tree_nodeINS_12__value_typeINS_12basic_stringIcNS_11char_traitsIcEENS1_IcEEEEPN2sf7TextureEEEPvEEEEEC2B8ne180100Ev, symObjAddr: 0xC18, symBinAddr: 0x100004614, symSize: 0x14 }
  - { offset: 0x1D9B4, size: 0x8, addend: 0x0, symName: __ZNSt3__117__compressed_pairImNS_19__map_value_compareINS_12basic_stringIcNS_11char_traitsIcEENS_9allocatorIcEEEENS_12__value_typeIS7_PN2sf7TextureEEENS_4lessIS7_EELb1EEEEC2B8ne180100IiRKSF_EEOT_OT0_, symObjAddr: 0xC2C, symBinAddr: 0x100004628, symSize: 0x44 }
  - { offset: 0x1DA0C, size: 0x8, addend: 0x0, symName: __ZNSt3__122__compressed_pair_elemINS_19__map_value_compareINS_12basic_stringIcNS_11char_traitsIcEENS_9allocatorIcEEEENS_12__value_typeIS7_PN2sf7TextureEEENS_4lessIS7_EELb1EEELi1ELb1EEC2B8ne180100IRKSF_vEEOT_, symObjAddr: 0xC70, symBinAddr: 0x10000466C, symSize: 0x18 }
  - { offset: 0x1DA4E, size: 0x8, addend: 0x0, symName: __ZNSt3__117__compressed_pairINS_15__tree_end_nodeIPNS_16__tree_node_baseIPvEEEENS_9allocatorINS_11__tree_nodeINS_12__value_typeINS_12basic_stringIcNS_11char_traitsIcEENS7_IcEEEEPN2sf7TextureEEES3_EEEEE5firstB8ne180100Ev, symObjAddr: 0xC88, symBinAddr: 0x100004684, symSize: 0x24 }
  - { offset: 0x1DA74, size: 0x8, addend: 0x0, symName: __ZNSt3__13mapINS_12basic_stringIcNS_11char_traitsIcEENS_9allocatorIcEEEEiNS_4lessIS6_EENS4_INS_4pairIKS6_iEEEEED2B8ne180100Ev, symObjAddr: 0xCAC, symBinAddr: 0x1000046A8, symSize: 0x2C }
  - { offset: 0x1DA9E, size: 0x8, addend: 0x0, symName: __ZNSt3__16__treeINS_12__value_typeINS_12basic_stringIcNS_11char_traitsIcEENS_9allocatorIcEEEEiEENS_19__map_value_compareIS7_S8_NS_4lessIS7_EELb1EEENS5_IS8_EEED1Ev, symObjAddr: 0xCD8, symBinAddr: 0x1000046D4, symSize: 0x2C }
  - { offset: 0x1DACA, size: 0x8, addend: 0x0, symName: __ZNSt3__16__treeINS_12__value_typeINS_12basic_stringIcNS_11char_traitsIcEENS_9allocatorIcEEEEiEENS_19__map_value_compareIS7_S8_NS_4lessIS7_EELb1EEENS5_IS8_EEED2Ev, symObjAddr: 0xD04, symBinAddr: 0x100004700, symSize: 0x38 }
  - { offset: 0x1DAF6, size: 0x8, addend: 0x0, symName: __ZNSt3__16__treeINS_12__value_typeINS_12basic_stringIcNS_11char_traitsIcEENS_9allocatorIcEEEEiEENS_19__map_value_compareIS7_S8_NS_4lessIS7_EELb1EEENS5_IS8_EEE7destroyEPNS_11__tree_nodeIS8_PvEE, symObjAddr: 0xD3C, symBinAddr: 0x100004738, symSize: 0xA4 }
  - { offset: 0x1DB43, size: 0x8, addend: 0x0, symName: __ZNKSt3__16__treeINS_12__value_typeINS_12basic_stringIcNS_11char_traitsIcEENS_9allocatorIcEEEEiEENS_19__map_value_compareIS7_S8_NS_4lessIS7_EELb1EEENS5_IS8_EEE6__rootB8ne180100Ev, symObjAddr: 0xDE0, symBinAddr: 0x1000047DC, symSize: 0x28 }
  - { offset: 0x1DB69, size: 0x8, addend: 0x0, symName: __ZNSt3__16__treeINS_12__value_typeINS_12basic_stringIcNS_11char_traitsIcEENS_9allocatorIcEEEEiEENS_19__map_value_compareIS7_S8_NS_4lessIS7_EELb1EEENS5_IS8_EEE12__node_allocB8ne180100Ev, symObjAddr: 0xE08, symBinAddr: 0x100004804, symSize: 0x28 }
  - { offset: 0x1DB94, size: 0x8, addend: 0x0, symName: __ZNSt3__116allocator_traitsINS_9allocatorINS_11__tree_nodeINS_12__value_typeINS_12basic_stringIcNS_11char_traitsIcEENS1_IcEEEEiEEPvEEEEE7destroyB8ne180100INS_4pairIKS8_iEEvvEEvRSC_PT_, symObjAddr: 0xE30, symBinAddr: 0x10000482C, symSize: 0x28 }
  - { offset: 0x1DBCF, size: 0x8, addend: 0x0, symName: __ZNSt3__122__tree_key_value_typesINS_12__value_typeINS_12basic_stringIcNS_11char_traitsIcEENS_9allocatorIcEEEEiEEE9__get_ptrB8ne180100ERS8_, symObjAddr: 0xE58, symBinAddr: 0x100004854, symSize: 0x24 }
  - { offset: 0x1DBF3, size: 0x8, addend: 0x0, symName: __ZNSt3__116allocator_traitsINS_9allocatorINS_11__tree_nodeINS_12__value_typeINS_12basic_stringIcNS_11char_traitsIcEENS1_IcEEEEiEEPvEEEEE10deallocateB8ne180100ERSC_PSB_m, symObjAddr: 0xE7C, symBinAddr: 0x100004878, symSize: 0x34 }
  - { offset: 0x1DC35, size: 0x8, addend: 0x0, symName: __ZNSt3__117__compressed_pairINS_15__tree_end_nodeIPNS_16__tree_node_baseIPvEEEENS_9allocatorINS_11__tree_nodeINS_12__value_typeINS_12basic_stringIcNS_11char_traitsIcEENS7_IcEEEEiEES3_EEEEE6secondB8ne180100Ev, symObjAddr: 0xEB0, symBinAddr: 0x1000048AC, symSize: 0x24 }
  - { offset: 0x1DC5B, size: 0x8, addend: 0x0, symName: __ZNSt3__122__compressed_pair_elemINS_9allocatorINS_11__tree_nodeINS_12__value_typeINS_12basic_stringIcNS_11char_traitsIcEENS1_IcEEEEiEEPvEEEELi1ELb1EE5__getB8ne180100Ev, symObjAddr: 0xED4, symBinAddr: 0x1000048D0, symSize: 0x14 }
  - { offset: 0x1DC81, size: 0x8, addend: 0x0, symName: __ZNSt3__14pairIKNS_12basic_stringIcNS_11char_traitsIcEENS_9allocatorIcEEEEiED1Ev, symObjAddr: 0xF0C, symBinAddr: 0x100004908, symSize: 0x2C }
  - { offset: 0x1DCAD, size: 0x8, addend: 0x0, symName: __ZNSt3__14pairIKNS_12basic_stringIcNS_11char_traitsIcEENS_9allocatorIcEEEEiED2Ev, symObjAddr: 0xF38, symBinAddr: 0x100004934, symSize: 0x2C }
  - { offset: 0x1DCD9, size: 0x8, addend: 0x0, symName: __ZNSt3__112__value_typeINS_12basic_stringIcNS_11char_traitsIcEENS_9allocatorIcEEEEiE11__get_valueB8ne180100Ev, symObjAddr: 0xF64, symBinAddr: 0x100004960, symSize: 0x24 }
  - { offset: 0x1DCFF, size: 0x8, addend: 0x0, symName: __ZNSt3__19allocatorINS_11__tree_nodeINS_12__value_typeINS_12basic_stringIcNS_11char_traitsIcEENS0_IcEEEEiEEPvEEE10deallocateB8ne180100EPSA_m, symObjAddr: 0xFC0, symBinAddr: 0x1000049BC, symSize: 0x40 }
  - { offset: 0x1DD41, size: 0x8, addend: 0x0, symName: __ZNKSt3__16__treeINS_12__value_typeINS_12basic_stringIcNS_11char_traitsIcEENS_9allocatorIcEEEEiEENS_19__map_value_compareIS7_S8_NS_4lessIS7_EELb1EEENS5_IS8_EEE10__end_nodeB8ne180100Ev, symObjAddr: 0x1124, symBinAddr: 0x100004B20, symSize: 0x2C }
  - { offset: 0x1DD67, size: 0x8, addend: 0x0, symName: __ZNKSt3__117__compressed_pairINS_15__tree_end_nodeIPNS_16__tree_node_baseIPvEEEENS_9allocatorINS_11__tree_nodeINS_12__value_typeINS_12basic_stringIcNS_11char_traitsIcEENS7_IcEEEEiEES3_EEEEE5firstB8ne180100Ev, symObjAddr: 0x1150, symBinAddr: 0x100004B4C, symSize: 0x24 }
  - { offset: 0x1DD8D, size: 0x8, addend: 0x0, symName: __ZNKSt3__122__compressed_pair_elemINS_15__tree_end_nodeIPNS_16__tree_node_baseIPvEEEELi0ELb0EE5__getB8ne180100Ev, symObjAddr: 0x1174, symBinAddr: 0x100004B70, symSize: 0x14 }
  - { offset: 0x1DDB3, size: 0x8, addend: 0x0, symName: __ZNSt3__13mapINS_12basic_stringIcNS_11char_traitsIcEENS_9allocatorIcEEEEPN2sf7TextureENS_4lessIS6_EENS4_INS_4pairIKS6_S9_EEEEED2B8ne180100Ev, symObjAddr: 0x1188, symBinAddr: 0x100004B84, symSize: 0x2C }
  - { offset: 0x1DDDD, size: 0x8, addend: 0x0, symName: __ZNSt3__16__treeINS_12__value_typeINS_12basic_stringIcNS_11char_traitsIcEENS_9allocatorIcEEEEPN2sf7TextureEEENS_19__map_value_compareIS7_SB_NS_4lessIS7_EELb1EEENS5_ISB_EEED1Ev, symObjAddr: 0x11B4, symBinAddr: 0x100004BB0, symSize: 0x2C }
  - { offset: 0x1DE09, size: 0x8, addend: 0x0, symName: __ZNSt3__16__treeINS_12__value_typeINS_12basic_stringIcNS_11char_traitsIcEENS_9allocatorIcEEEEPN2sf7TextureEEENS_19__map_value_compareIS7_SB_NS_4lessIS7_EELb1EEENS5_ISB_EEED2Ev, symObjAddr: 0x11E0, symBinAddr: 0x100004BDC, symSize: 0x38 }
  - { offset: 0x1DE35, size: 0x8, addend: 0x0, symName: __ZNSt3__16__treeINS_12__value_typeINS_12basic_stringIcNS_11char_traitsIcEENS_9allocatorIcEEEEPN2sf7TextureEEENS_19__map_value_compareIS7_SB_NS_4lessIS7_EELb1EEENS5_ISB_EEE7destroyEPNS_11__tree_nodeISB_PvEE, symObjAddr: 0x1218, symBinAddr: 0x100004C14, symSize: 0xA4 }
  - { offset: 0x1DE82, size: 0x8, addend: 0x0, symName: __ZNKSt3__16__treeINS_12__value_typeINS_12basic_stringIcNS_11char_traitsIcEENS_9allocatorIcEEEEPN2sf7TextureEEENS_19__map_value_compareIS7_SB_NS_4lessIS7_EELb1EEENS5_ISB_EEE6__rootB8ne180100Ev, symObjAddr: 0x12BC, symBinAddr: 0x100004CB8, symSize: 0x28 }
  - { offset: 0x1DEA8, size: 0x8, addend: 0x0, symName: __ZNSt3__16__treeINS_12__value_typeINS_12basic_stringIcNS_11char_traitsIcEENS_9allocatorIcEEEEPN2sf7TextureEEENS_19__map_value_compareIS7_SB_NS_4lessIS7_EELb1EEENS5_ISB_EEE12__node_allocB8ne180100Ev, symObjAddr: 0x12E4, symBinAddr: 0x100004CE0, symSize: 0x28 }
  - { offset: 0x1DED3, size: 0x8, addend: 0x0, symName: __ZNSt3__116allocator_traitsINS_9allocatorINS_11__tree_nodeINS_12__value_typeINS_12basic_stringIcNS_11char_traitsIcEENS1_IcEEEEPN2sf7TextureEEEPvEEEEE7destroyB8ne180100INS_4pairIKS8_SB_EEvvEEvRSF_PT_, symObjAddr: 0x130C, symBinAddr: 0x100004D08, symSize: 0x28 }
  - { offset: 0x1DF0E, size: 0x8, addend: 0x0, symName: __ZNSt3__122__tree_key_value_typesINS_12__value_typeINS_12basic_stringIcNS_11char_traitsIcEENS_9allocatorIcEEEEPN2sf7TextureEEEE9__get_ptrB8ne180100ERSB_, symObjAddr: 0x1334, symBinAddr: 0x100004D30, symSize: 0x24 }
  - { offset: 0x1DF32, size: 0x8, addend: 0x0, symName: __ZNSt3__116allocator_traitsINS_9allocatorINS_11__tree_nodeINS_12__value_typeINS_12basic_stringIcNS_11char_traitsIcEENS1_IcEEEEPN2sf7TextureEEEPvEEEEE10deallocateB8ne180100ERSF_PSE_m, symObjAddr: 0x1358, symBinAddr: 0x100004D54, symSize: 0x34 }
  - { offset: 0x1DF74, size: 0x8, addend: 0x0, symName: __ZNSt3__117__compressed_pairINS_15__tree_end_nodeIPNS_16__tree_node_baseIPvEEEENS_9allocatorINS_11__tree_nodeINS_12__value_typeINS_12basic_stringIcNS_11char_traitsIcEENS7_IcEEEEPN2sf7TextureEEES3_EEEEE6secondB8ne180100Ev, symObjAddr: 0x138C, symBinAddr: 0x100004D88, symSize: 0x24 }
  - { offset: 0x1DF9A, size: 0x8, addend: 0x0, symName: __ZNSt3__122__compressed_pair_elemINS_9allocatorINS_11__tree_nodeINS_12__value_typeINS_12basic_stringIcNS_11char_traitsIcEENS1_IcEEEEPN2sf7TextureEEEPvEEEELi1ELb1EE5__getB8ne180100Ev, symObjAddr: 0x13B0, symBinAddr: 0x100004DAC, symSize: 0x14 }
  - { offset: 0x1DFC0, size: 0x8, addend: 0x0, symName: __ZNSt3__14pairIKNS_12basic_stringIcNS_11char_traitsIcEENS_9allocatorIcEEEEPN2sf7TextureEED1Ev, symObjAddr: 0x13E8, symBinAddr: 0x100004DE4, symSize: 0x2C }
  - { offset: 0x1DFEC, size: 0x8, addend: 0x0, symName: __ZNSt3__14pairIKNS_12basic_stringIcNS_11char_traitsIcEENS_9allocatorIcEEEEPN2sf7TextureEED2Ev, symObjAddr: 0x1414, symBinAddr: 0x100004E10, symSize: 0x2C }
  - { offset: 0x1E018, size: 0x8, addend: 0x0, symName: __ZNSt3__112__value_typeINS_12basic_stringIcNS_11char_traitsIcEENS_9allocatorIcEEEEPN2sf7TextureEE11__get_valueB8ne180100Ev, symObjAddr: 0x1440, symBinAddr: 0x100004E3C, symSize: 0x24 }
  - { offset: 0x1E03E, size: 0x8, addend: 0x0, symName: __ZNSt3__19allocatorINS_11__tree_nodeINS_12__value_typeINS_12basic_stringIcNS_11char_traitsIcEENS0_IcEEEEPN2sf7TextureEEEPvEEE10deallocateB8ne180100EPSD_m, symObjAddr: 0x149C, symBinAddr: 0x100004E98, symSize: 0x40 }
  - { offset: 0x1E080, size: 0x8, addend: 0x0, symName: __ZNKSt3__16__treeINS_12__value_typeINS_12basic_stringIcNS_11char_traitsIcEENS_9allocatorIcEEEEPN2sf7TextureEEENS_19__map_value_compareIS7_SB_NS_4lessIS7_EELb1EEENS5_ISB_EEE10__end_nodeB8ne180100Ev, symObjAddr: 0x14DC, symBinAddr: 0x100004ED8, symSize: 0x2C }
  - { offset: 0x1E0A6, size: 0x8, addend: 0x0, symName: __ZNKSt3__117__compressed_pairINS_15__tree_end_nodeIPNS_16__tree_node_baseIPvEEEENS_9allocatorINS_11__tree_nodeINS_12__value_typeINS_12basic_stringIcNS_11char_traitsIcEENS7_IcEEEEPN2sf7TextureEEES3_EEEEE5firstB8ne180100Ev, symObjAddr: 0x1508, symBinAddr: 0x100004F04, symSize: 0x24 }
  - { offset: 0x1E0CC, size: 0x8, addend: 0x0, symName: __ZNSt3__16__treeINS_12__value_typeINS_12basic_stringIcNS_11char_traitsIcEENS_9allocatorIcEEEEPN2sf7TextureEEENS_19__map_value_compareIS7_SB_NS_4lessIS7_EELb1EEENS5_ISB_EEE5beginB8ne180100Ev, symObjAddr: 0x152C, symBinAddr: 0x100004F28, symSize: 0x34 }
  - { offset: 0x1E0F2, size: 0x8, addend: 0x0, symName: __ZNSt3__114__map_iteratorINS_15__tree_iteratorINS_12__value_typeINS_12basic_stringIcNS_11char_traitsIcEENS_9allocatorIcEEEEPN2sf7TextureEEEPNS_11__tree_nodeISC_PvEElEEEC1B8ne180100ESH_, symObjAddr: 0x1560, symBinAddr: 0x100004F5C, symSize: 0x34 }
  - { offset: 0x1E12B, size: 0x8, addend: 0x0, symName: __ZNSt3__115__tree_iteratorINS_12__value_typeINS_12basic_stringIcNS_11char_traitsIcEENS_9allocatorIcEEEEPN2sf7TextureEEEPNS_11__tree_nodeISB_PvEElEC1B8ne180100EPNS_15__tree_end_nodeIPNS_16__tree_node_baseISD_EEEE, symObjAddr: 0x1594, symBinAddr: 0x100004F90, symSize: 0x34 }
  - { offset: 0x1E164, size: 0x8, addend: 0x0, symName: __ZNSt3__115__tree_iteratorINS_12__value_typeINS_12basic_stringIcNS_11char_traitsIcEENS_9allocatorIcEEEEPN2sf7TextureEEEPNS_11__tree_nodeISB_PvEElEC2B8ne180100EPNS_15__tree_end_nodeIPNS_16__tree_node_baseISD_EEEE, symObjAddr: 0x15C8, symBinAddr: 0x100004FC4, symSize: 0x20 }
  - { offset: 0x1E19D, size: 0x8, addend: 0x0, symName: __ZNSt3__114__map_iteratorINS_15__tree_iteratorINS_12__value_typeINS_12basic_stringIcNS_11char_traitsIcEENS_9allocatorIcEEEEPN2sf7TextureEEEPNS_11__tree_nodeISC_PvEElEEEC2B8ne180100ESH_, symObjAddr: 0x15E8, symBinAddr: 0x100004FE4, symSize: 0x20 }
  - { offset: 0x1E1D6, size: 0x8, addend: 0x0, symName: __ZNSt3__16__treeINS_12__value_typeINS_12basic_stringIcNS_11char_traitsIcEENS_9allocatorIcEEEEPN2sf7TextureEEENS_19__map_value_compareIS7_SB_NS_4lessIS7_EELb1EEENS5_ISB_EEE3endB8ne180100Ev, symObjAddr: 0x1608, symBinAddr: 0x100005004, symSize: 0x34 }
  - { offset: 0x1E1FC, size: 0x8, addend: 0x0, symName: __ZNSt3__115__tree_iteratorINS_12__value_typeINS_12basic_stringIcNS_11char_traitsIcEENS_9allocatorIcEEEEPN2sf7TextureEEEPNS_11__tree_nodeISB_PvEElEppB8ne180100Ev, symObjAddr: 0x1698, symBinAddr: 0x100005094, symSize: 0x38 }
  - { offset: 0x1E222, size: 0x8, addend: 0x0, symName: __ZNKSt3__116__tree_node_baseIPvE15__parent_unsafeB8ne180100Ev, symObjAddr: 0x17B8, symBinAddr: 0x1000051B4, symSize: 0x18 }
  - { offset: 0x1E248, size: 0x8, addend: 0x0, symName: __ZNKSt3__115__tree_iteratorINS_12__value_typeINS_12basic_stringIcNS_11char_traitsIcEENS_9allocatorIcEEEEPN2sf7TextureEEEPNS_11__tree_nodeISB_PvEElEptB8ne180100Ev, symObjAddr: 0x17D0, symBinAddr: 0x1000051CC, symSize: 0x2C }
  - { offset: 0x1E26E, size: 0x8, addend: 0x0, symName: __ZNSt3__114pointer_traitsIPNS_12__value_typeINS_12basic_stringIcNS_11char_traitsIcEENS_9allocatorIcEEEEPN2sf7TextureEEEE10pointer_toB8ne180100ERSB_, symObjAddr: 0x17FC, symBinAddr: 0x1000051F8, symSize: 0x14 }
  - { offset: 0x1E291, size: 0x8, addend: 0x0, symName: __ZNKSt3__115__tree_iteratorINS_12__value_typeINS_12basic_stringIcNS_11char_traitsIcEENS_9allocatorIcEEEEPN2sf7TextureEEEPNS_11__tree_nodeISB_PvEElE8__get_npB8ne180100Ev, symObjAddr: 0x1810, symBinAddr: 0x10000520C, symSize: 0x18 }
  - { offset: 0x1E2B7, size: 0x8, addend: 0x0, symName: __ZNSt3__16__treeINS_12__value_typeINS_12basic_stringIcNS_11char_traitsIcEENS_9allocatorIcEEEEiEENS_19__map_value_compareIS7_S8_NS_4lessIS7_EELb1EEENS5_IS8_EEE12__find_equalIS7_EERPNS_16__tree_node_baseIPvEERPNS_15__tree_end_nodeISJ_EERKT_, symObjAddr: 0x1828, symBinAddr: 0x100005224, symSize: 0x16C }
  - { offset: 0x1E322, size: 0x8, addend: 0x0, symName: __ZNKSt3__16__treeINS_12__value_typeINS_12basic_stringIcNS_11char_traitsIcEENS_9allocatorIcEEEEiEENS_19__map_value_compareIS7_S8_NS_4lessIS7_EELb1EEENS5_IS8_EEE10__root_ptrB8ne180100Ev, symObjAddr: 0x19F8, symBinAddr: 0x1000053F4, symSize: 0x24 }
  - { offset: 0x1E348, size: 0x8, addend: 0x0, symName: __ZNSt3__16__treeINS_12__value_typeINS_12basic_stringIcNS_11char_traitsIcEENS_9allocatorIcEEEEiEENS_19__map_value_compareIS7_S8_NS_4lessIS7_EELb1EEENS5_IS8_EEE10value_compB8ne180100Ev, symObjAddr: 0x1A1C, symBinAddr: 0x100005418, symSize: 0x28 }
  - { offset: 0x1E36E, size: 0x8, addend: 0x0, symName: __ZNKSt3__119__map_value_compareINS_12basic_stringIcNS_11char_traitsIcEENS_9allocatorIcEEEENS_12__value_typeIS6_iEENS_4lessIS6_EELb1EEclB8ne180100ERKS6_RKS8_, symObjAddr: 0x1A44, symBinAddr: 0x100005440, symSize: 0x4C }
  - { offset: 0x1E3B2, size: 0x8, addend: 0x0, symName: __ZNKSt3__119__map_value_compareINS_12basic_stringIcNS_11char_traitsIcEENS_9allocatorIcEEEENS_12__value_typeIS6_iEENS_4lessIS6_EELb1EEclB8ne180100ERKS8_RKS6_, symObjAddr: 0x1A90, symBinAddr: 0x10000548C, symSize: 0x44 }
  - { offset: 0x1E3F6, size: 0x8, addend: 0x0, symName: __ZNSt3__117__compressed_pairImNS_19__map_value_compareINS_12basic_stringIcNS_11char_traitsIcEENS_9allocatorIcEEEENS_12__value_typeIS7_iEENS_4lessIS7_EELb1EEEE6secondB8ne180100Ev, symObjAddr: 0x1AD4, symBinAddr: 0x1000054D0, symSize: 0x24 }
  - { offset: 0x1E41C, size: 0x8, addend: 0x0, symName: __ZNSt3__122__compressed_pair_elemINS_19__map_value_compareINS_12basic_stringIcNS_11char_traitsIcEENS_9allocatorIcEEEENS_12__value_typeIS7_iEENS_4lessIS7_EELb1EEELi1ELb1EE5__getB8ne180100Ev, symObjAddr: 0x1AF8, symBinAddr: 0x1000054F4, symSize: 0x14 }
  - { offset: 0x1E442, size: 0x8, addend: 0x0, symName: __ZNKSt3__14lessINS_12basic_stringIcNS_11char_traitsIcEENS_9allocatorIcEEEEEclB8ne180100ERKS6_S9_, symObjAddr: 0x1B0C, symBinAddr: 0x100005508, symSize: 0x30 }
  - { offset: 0x1E486, size: 0x8, addend: 0x0, symName: __ZNKSt3__112__value_typeINS_12basic_stringIcNS_11char_traitsIcEENS_9allocatorIcEEEEiE11__get_valueB8ne180100Ev, symObjAddr: 0x1B3C, symBinAddr: 0x100005538, symSize: 0x24 }
  - { offset: 0x1E4AC, size: 0x8, addend: 0x0, symName: __ZNKSt3__112basic_stringIcNS_11char_traitsIcEENS_9allocatorIcEEE7compareB8ne180100ERKS5_, symObjAddr: 0x1B94, symBinAddr: 0x100005590, symSize: 0x4C }
  - { offset: 0x1E4E3, size: 0x8, addend: 0x0, symName: __ZNKSt3__112basic_stringIcNS_11char_traitsIcEENS_9allocatorIcEEE7compareINS_17basic_string_viewIcS2_EETnNS_9enable_ifIXsr33__can_be_converted_to_string_viewIcS2_T_EE5valueEiE4typeELi0EEEiRKSA_, symObjAddr: 0x1BE0, symBinAddr: 0x1000055DC, symSize: 0x11C }
  - { offset: 0x1E564, size: 0x8, addend: 0x0, symName: __ZNKSt3__112basic_stringIcNS_11char_traitsIcEENS_9allocatorIcEEEcvNS_17basic_string_viewIcS2_EEB8ne180100Ev, symObjAddr: 0x1CFC, symBinAddr: 0x1000056F8, symSize: 0x50 }
  - { offset: 0x1E58A, size: 0x8, addend: 0x0, symName: __ZNKSt3__112basic_stringIcNS_11char_traitsIcEENS_9allocatorIcEEE4sizeB8ne180100Ev, symObjAddr: 0x1D4C, symBinAddr: 0x100005748, symSize: 0x54 }
  - { offset: 0x1E5B0, size: 0x8, addend: 0x0, symName: __ZNKSt3__117basic_string_viewIcNS_11char_traitsIcEEE4sizeB8ne180100Ev, symObjAddr: 0x1DA0, symBinAddr: 0x10000579C, symSize: 0x18 }
  - { offset: 0x1E5D6, size: 0x8, addend: 0x0, symName: __ZNSt3__111char_traitsIcE7compareB8ne180100EPKcS3_m, symObjAddr: 0x1DB8, symBinAddr: 0x1000057B4, symSize: 0x34 }
  - { offset: 0x1E615, size: 0x8, addend: 0x0, symName: __ZNKSt3__112basic_stringIcNS_11char_traitsIcEENS_9allocatorIcEEE4dataB8ne180100Ev, symObjAddr: 0x1DEC, symBinAddr: 0x1000057E8, symSize: 0x28 }
  - { offset: 0x1E63B, size: 0x8, addend: 0x0, symName: __ZNKSt3__117basic_string_viewIcNS_11char_traitsIcEEE4dataB8ne180100Ev, symObjAddr: 0x1E14, symBinAddr: 0x100005810, symSize: 0x18 }
  - { offset: 0x1E661, size: 0x8, addend: 0x0, symName: __ZNKSt3__112basic_stringIcNS_11char_traitsIcEENS_9allocatorIcEEE9__is_longB8ne180100Ev, symObjAddr: 0x1E58, symBinAddr: 0x100005854, symSize: 0x34 }
  - { offset: 0x1E687, size: 0x8, addend: 0x0, symName: __ZNKSt3__112basic_stringIcNS_11char_traitsIcEENS_9allocatorIcEEE15__get_long_sizeB8ne180100Ev, symObjAddr: 0x1E8C, symBinAddr: 0x100005888, symSize: 0x28 }
  - { offset: 0x1E6AD, size: 0x8, addend: 0x0, symName: __ZNKSt3__112basic_stringIcNS_11char_traitsIcEENS_9allocatorIcEEE16__get_short_sizeB8ne180100Ev, symObjAddr: 0x1EB4, symBinAddr: 0x1000058B0, symSize: 0x34 }
  - { offset: 0x1E6D3, size: 0x8, addend: 0x0, symName: __ZNKSt3__117__compressed_pairINS_12basic_stringIcNS_11char_traitsIcEENS_9allocatorIcEEE5__repES5_E5firstB8ne180100Ev, symObjAddr: 0x1EE8, symBinAddr: 0x1000058E4, symSize: 0x24 }
  - { offset: 0x1E6F9, size: 0x8, addend: 0x0, symName: __ZNKSt3__122__compressed_pair_elemINS_12basic_stringIcNS_11char_traitsIcEENS_9allocatorIcEEE5__repELi0ELb0EE5__getB8ne180100Ev, symObjAddr: 0x1F0C, symBinAddr: 0x100005908, symSize: 0x14 }
  - { offset: 0x1E71F, size: 0x8, addend: 0x0, symName: __ZNKSt3__112basic_stringIcNS_11char_traitsIcEENS_9allocatorIcEEE13__get_pointerB8ne180100Ev, symObjAddr: 0x1F34, symBinAddr: 0x100005930, symSize: 0x54 }
  - { offset: 0x1E745, size: 0x8, addend: 0x0, symName: __ZNKSt3__112basic_stringIcNS_11char_traitsIcEENS_9allocatorIcEEE18__get_long_pointerB8ne180100Ev, symObjAddr: 0x1F88, symBinAddr: 0x100005984, symSize: 0x28 }
  - { offset: 0x1E76B, size: 0x8, addend: 0x0, symName: __ZNKSt3__112basic_stringIcNS_11char_traitsIcEENS_9allocatorIcEEE19__get_short_pointerB8ne180100Ev, symObjAddr: 0x1FB0, symBinAddr: 0x1000059AC, symSize: 0x28 }
  - { offset: 0x1E791, size: 0x8, addend: 0x0, symName: __ZNSt3__114pointer_traitsIPKcE10pointer_toB8ne180100ERS1_, symObjAddr: 0x1FD8, symBinAddr: 0x1000059D4, symSize: 0x14 }
  - { offset: 0x1E7BE, size: 0x8, addend: 0x0, symName: __ZNKSt3__16__lessIvvEclB8ne180100ImmEEbRKT_RKT0_, symObjAddr: 0x2040, symBinAddr: 0x100005A3C, symSize: 0x30 }
  - { offset: 0x1E812, size: 0x8, addend: 0x0, symName: __ZNSt3__117basic_string_viewIcNS_11char_traitsIcEEEC1B8ne180100EPKcm, symObjAddr: 0x2070, symBinAddr: 0x100005A6C, symSize: 0x3C }
  - { offset: 0x1E85A, size: 0x8, addend: 0x0, symName: __ZNSt3__117basic_string_viewIcNS_11char_traitsIcEEEC2B8ne180100EPKcm, symObjAddr: 0x20AC, symBinAddr: 0x100005AA8, symSize: 0x2C }
  - { offset: 0x1E8A2, size: 0x8, addend: 0x0, symName: __ZNSt12out_of_rangeC1B8ne180100EPKc, symObjAddr: 0x2110, symBinAddr: 0x100005B0C, symSize: 0x34 }
  - { offset: 0x1E8DA, size: 0x8, addend: 0x0, symName: __ZNSt12out_of_rangeC2B8ne180100EPKc, symObjAddr: 0x2144, symBinAddr: 0x100005B40, symSize: 0x44 }
  - { offset: 0x1E912, size: 0x8, addend: 0x0, symName: __ZNSt3__112basic_stringIcNS_11char_traitsIcEENS_9allocatorIcEEEC2B8ne180100ILi0EEEPKc, symObjAddr: 0x2188, symBinAddr: 0x100005B84, symSize: 0x58 }
  - { offset: 0x1E956, size: 0x8, addend: 0x0, symName: __ZNSt3__117__compressed_pairINS_12basic_stringIcNS_11char_traitsIcEENS_9allocatorIcEEE5__repES5_EC1B8ne180100INS_18__default_init_tagESA_EEOT_OT0_, symObjAddr: 0x21E0, symBinAddr: 0x100005BDC, symSize: 0x3C }
  - { offset: 0x1E9AE, size: 0x8, addend: 0x0, symName: __ZNSt3__111char_traitsIcE6lengthB8ne180100EPKc, symObjAddr: 0x221C, symBinAddr: 0x100005C18, symSize: 0x34 }
  - { offset: 0x1E9D1, size: 0x8, addend: 0x0, symName: __ZNSt3__117__compressed_pairINS_12basic_stringIcNS_11char_traitsIcEENS_9allocatorIcEEE5__repES5_EC2B8ne180100INS_18__default_init_tagESA_EEOT_OT0_, symObjAddr: 0x2250, symBinAddr: 0x100005C4C, symSize: 0x3C }
  - { offset: 0x1EA29, size: 0x8, addend: 0x0, symName: __ZNSt3__122__compressed_pair_elemINS_12basic_stringIcNS_11char_traitsIcEENS_9allocatorIcEEE5__repELi0ELb0EEC2B8ne180100ENS_18__default_init_tagE, symObjAddr: 0x228C, symBinAddr: 0x100005C88, symSize: 0x14 }
  - { offset: 0x1EA5E, size: 0x8, addend: 0x0, symName: __ZNSt3__122__compressed_pair_elemINS_9allocatorIcEELi1ELb1EEC2B8ne180100ENS_18__default_init_tagE, symObjAddr: 0x22A0, symBinAddr: 0x100005C9C, symSize: 0x2C }
  - { offset: 0x1EA93, size: 0x8, addend: 0x0, symName: __ZNSt3__19allocatorIcEC2B8ne180100Ev, symObjAddr: 0x22CC, symBinAddr: 0x100005CC8, symSize: 0x2C }
  - { offset: 0x1EABD, size: 0x8, addend: 0x0, symName: __ZNSt3__116__non_trivial_ifILb1ENS_9allocatorIcEEEC2B8ne180100Ev, symObjAddr: 0x22F8, symBinAddr: 0x100005CF4, symSize: 0x14 }
  - { offset: 0x20935, size: 0x8, addend: 0x0, symName: __ZNSt3__119piecewise_constructE, symObjAddr: 0x7FCF, symBinAddr: 0x10001F0A1, symSize: 0x0 }
  - { offset: 0x32EC1, size: 0x8, addend: 0x0, symName: __ZNSt3__1rsB8ne180100IcNS_11char_traitsIcEENS_9allocatorIcEEEERNS_13basic_istreamIT_T0_EES9_RNS_12basic_stringIS6_S7_T1_EE, symObjAddr: 0x7E4, symBinAddr: 0x100006484, symSize: 0x300 }
  - { offset: 0x32F9D, size: 0x8, addend: 0x0, symName: __ZNSt3__1neB8ne180100ERKNS_16__deque_iteratorIP5StatePS2_RS2_PS3_lLl512EEES8_, symObjAddr: 0x1648, symBinAddr: 0x1000072D8, symSize: 0x30 }
  - { offset: 0x32FDA, size: 0x8, addend: 0x0, symName: __ZNSt3__1eqB8ne180100ERKNS_16__deque_iteratorIP5StatePS2_RS2_PS3_lLl512EEES8_, symObjAddr: 0x18E4, symBinAddr: 0x100007574, symSize: 0x2C }
  - { offset: 0x33018, size: 0x8, addend: 0x0, symName: __ZNSt3__112__to_addressB8ne180100IPP5StateEEPT_S5_, symObjAddr: 0x1D60, symBinAddr: 0x1000078CC, symSize: 0x14 }
  - { offset: 0x33238, size: 0x8, addend: 0x0, symName: __ZNSt3__19use_facetB8ne180100INS_5ctypeIcEEEERKT_RKNS_6localeE, symObjAddr: 0x30FC, symBinAddr: 0x100008354, symSize: 0x2C }
  - { offset: 0x33870, size: 0x8, addend: 0x0, symName: __ZNSt3__116forward_as_tupleB8ne180100IJRKNS_12basic_stringIcNS_11char_traitsIcEENS_9allocatorIcEEEEEEENS_5tupleIJDpOT_EEESC_, symObjAddr: 0x3884, symBinAddr: 0x1000089C0, symSize: 0x2C }
  - { offset: 0x338AB, size: 0x8, addend: 0x0, symName: __ZNSt3__116forward_as_tupleB8ne180100IJEEENS_5tupleIJDpOT_EEES4_, symObjAddr: 0x38B0, symBinAddr: 0x1000089EC, symSize: 0x4 }
  - { offset: 0x338EE, size: 0x8, addend: 0x0, symName: __ZNSt3__117__libcpp_allocateB8ne180100Emm, symObjAddr: 0x4518, symBinAddr: 0x100008EEC, symSize: 0x60 }
  - { offset: 0x33948, size: 0x8, addend: 0x0, symName: __ZNSt3__121__libcpp_operator_newB8ne180100IJmSt11align_val_tEEEPvDpT_, symObjAddr: 0x458C, symBinAddr: 0x100008F60, symSize: 0x2C }
  - { offset: 0x33998, size: 0x8, addend: 0x0, symName: __ZNSt3__121__libcpp_operator_newB8ne180100IJmEEEPvDpT_, symObjAddr: 0x45B8, symBinAddr: 0x100008F8C, symSize: 0x24 }
  - { offset: 0x339DF, size: 0x8, addend: 0x0, symName: __ZNSt3__13getB8ne180100ILm0EJRKNS_12basic_stringIcNS_11char_traitsIcEENS_9allocatorIcEEEEEEERNS_13tuple_elementIXT_ENS_5tupleIJDpT0_EEEE4typeERSD_, symObjAddr: 0x4824, symBinAddr: 0x1000091F8, symSize: 0x24 }
  - { offset: 0x33A24, size: 0x8, addend: 0x0, symName: __ZNSt3__127__tree_balance_after_insertB8ne180100IPNS_16__tree_node_baseIPvEEEEvT_S5_, symObjAddr: 0x48D4, symBinAddr: 0x1000092A8, symSize: 0x30C }
  - { offset: 0x33AA0, size: 0x8, addend: 0x0, symName: __ZNSt3__118__tree_left_rotateB8ne180100IPNS_16__tree_node_baseIPvEEEEvT_, symObjAddr: 0x4C48, symBinAddr: 0x1000095DC, symSize: 0xD0 }
  - { offset: 0x33ADF, size: 0x8, addend: 0x0, symName: __ZNSt3__119__tree_right_rotateB8ne180100IPNS_16__tree_node_baseIPvEEEEvT_, symObjAddr: 0x4D18, symBinAddr: 0x1000096AC, symSize: 0xC4 }
  - { offset: 0x33B7C, size: 0x8, addend: 0x0, symName: __ZNSt3__13maxB8ne180100ImEERKT_S3_S3_, symObjAddr: 0x5D6C, symBinAddr: 0x10000A700, symSize: 0x2C }
  - { offset: 0x34012, size: 0x8, addend: 0x0, symName: __ZNSt3__14swapB8ne180100IPPP5StateEENS_9enable_ifIXaasr21is_move_constructibleIT_EE5valuesr18is_move_assignableIS6_EE5valueEvE4typeERS6_S9_, symObjAddr: 0x636C, symBinAddr: 0x10000AD00, symSize: 0x3C }
  - { offset: 0x34064, size: 0x8, addend: 0x0, symName: __ZNSt3__14moveB8ne180100IPPP5StateS4_EET0_T_S6_S5_, symObjAddr: 0x6450, symBinAddr: 0x10000ADE4, symSize: 0x40 }
  - { offset: 0x340BF, size: 0x8, addend: 0x0, symName: __ZNSt3__16__moveB8ne180100INS_17_ClassicAlgPolicyEPPP5StateS5_S5_EENS_4pairIT0_T2_EES7_T1_S8_, symObjAddr: 0x6558, symBinAddr: 0x10000AEEC, symSize: 0x44 }
  - { offset: 0x3412C, size: 0x8, addend: 0x0, symName: __ZNSt3__123__dispatch_copy_or_moveB8ne180100INS_17_ClassicAlgPolicyENS_11__move_loopIS1_EENS_14__move_trivialEPPP5StateS8_S8_EENS_4pairIT2_T4_EESA_T3_SB_, symObjAddr: 0x659C, symBinAddr: 0x10000AF30, symSize: 0x44 }
  - { offset: 0x341AB, size: 0x8, addend: 0x0, symName: __ZNSt3__121__unwrap_and_dispatchB8ne180100INS_10__overloadINS_11__move_loopINS_17_ClassicAlgPolicyEEENS_14__move_trivialEEEPPP5StateSA_SA_TnNS_9enable_ifIXsr12__can_rewrapIT0_T1_T2_EE5valueEiE4typeELi0EEENS_4pairISC_SE_EESC_SD_SE_, symObjAddr: 0x65E0, symBinAddr: 0x10000AF74, symSize: 0xB4 }
  - { offset: 0x3423A, size: 0x8, addend: 0x0, symName: __ZNSt3__114__unwrap_rangeB8ne180100IPPP5StateS4_EENS_4pairIT0_S6_EET_S8_, symObjAddr: 0x6694, symBinAddr: 0x10000B028, symSize: 0x60 }
  - { offset: 0x343FF, size: 0x8, addend: 0x0, symName: __ZNSt3__113__unwrap_iterB8ne180100IPPP5StateNS_18__unwrap_iter_implIS4_Lb1EEETnNS_9enable_ifIXsr21is_copy_constructibleIT_EE5valueEiE4typeELi0EEEDTclsrT0_8__unwrapclsr3stdE7declvalIS8_EEEES8_, symObjAddr: 0x673C, symBinAddr: 0x10000B0D0, symSize: 0x24 }
  - { offset: 0x34443, size: 0x8, addend: 0x0, symName: __ZNSt3__19make_pairB8ne180100IPPP5StateS4_EENS_4pairINS_18__unwrap_ref_decayIT_E4typeENS6_IT0_E4typeEEEOS7_OSA_, symObjAddr: 0x6760, symBinAddr: 0x10000B0F4, symSize: 0x38 }
  - { offset: 0x34493, size: 0x8, addend: 0x0, symName: __ZNSt3__114__rewrap_rangeB8ne180100IPPP5StateS4_EET_S5_T0_, symObjAddr: 0x6798, symBinAddr: 0x10000B12C, symSize: 0x2C }
  - { offset: 0x344E0, size: 0x8, addend: 0x0, symName: __ZNSt3__113__rewrap_iterB8ne180100IPPP5StateS4_NS_18__unwrap_iter_implIS4_Lb1EEEEET_S7_T0_, symObjAddr: 0x67C4, symBinAddr: 0x10000B158, symSize: 0x3C }
  - { offset: 0x34536, size: 0x8, addend: 0x0, symName: __ZNSt3__119__copy_trivial_implB8ne180100IPP5StateS3_EENS_4pairIPT_PT0_EES6_S6_S8_, symObjAddr: 0x6800, symBinAddr: 0x10000B194, symSize: 0x80 }
  - { offset: 0x3459F, size: 0x8, addend: 0x0, symName: __ZNSt3__119__constexpr_memmoveB8ne180100IPP5StateS3_TnNS_9enable_ifIXsr23__is_always_bitcastableIT0_T_EE5valueEiE4typeELi0EEEPS6_S9_PS5_NS_15__element_countE, symObjAddr: 0x6880, symBinAddr: 0x10000B214, symSize: 0x60 }
  - { offset: 0x3460D, size: 0x8, addend: 0x0, symName: __ZNSt3__19make_pairB8ne180100IRPPP5StateS4_EENS_4pairINS_18__unwrap_ref_decayIT_E4typeENS7_IT0_E4typeEEEOS8_OSB_, symObjAddr: 0x68E0, symBinAddr: 0x10000B274, symSize: 0x38 }
  - { offset: 0x346B0, size: 0x8, addend: 0x0, symName: __ZNSt3__18distanceB8ne180100INS_13move_iteratorIPPP5StateEEEENS_15iterator_traitsIT_E15difference_typeES8_S8_, symObjAddr: 0x6B44, symBinAddr: 0x10000B4D8, symSize: 0x3C }
  - { offset: 0x346F4, size: 0x8, addend: 0x0, symName: __ZNSt3__110__distanceB8ne180100INS_13move_iteratorIPPP5StateEEEENS_15iterator_traitsIT_E15difference_typeES8_S8_NS_26random_access_iterator_tagE, symObjAddr: 0x6D48, symBinAddr: 0x10000B6DC, symSize: 0x30 }
  - { offset: 0x34742, size: 0x8, addend: 0x0, symName: __ZNSt3__1miB8ne180100IPPP5StateS4_EEDTmicldtfp_4baseEcldtfp0_4baseEERKNS_13move_iteratorIT_EERKNS6_IT0_EE, symObjAddr: 0x6D78, symBinAddr: 0x10000B70C, symSize: 0x48 }
  - { offset: 0x34792, size: 0x8, addend: 0x0, symName: __ZNSt3__113move_backwardB8ne180100IPPP5StateS4_EET0_T_S6_S5_, symObjAddr: 0x6EAC, symBinAddr: 0x10000B840, symSize: 0x40 }
  - { offset: 0x347ED, size: 0x8, addend: 0x0, symName: __ZNSt3__115__move_backwardB8ne180100INS_17_ClassicAlgPolicyEPPP5StateS5_S5_EENS_4pairIT0_T2_EES7_T1_S8_, symObjAddr: 0x6EEC, symBinAddr: 0x10000B880, symSize: 0x44 }
  - { offset: 0x3485A, size: 0x8, addend: 0x0, symName: __ZNSt3__123__dispatch_copy_or_moveB8ne180100INS_17_ClassicAlgPolicyENS_20__move_backward_loopIS1_EENS_23__move_backward_trivialEPPP5StateS8_S8_EENS_4pairIT2_T4_EESA_T3_SB_, symObjAddr: 0x6F30, symBinAddr: 0x10000B8C4, symSize: 0x44 }
  - { offset: 0x348D9, size: 0x8, addend: 0x0, symName: __ZNSt3__121__unwrap_and_dispatchB8ne180100INS_10__overloadINS_20__move_backward_loopINS_17_ClassicAlgPolicyEEENS_23__move_backward_trivialEEEPPP5StateSA_SA_TnNS_9enable_ifIXsr12__can_rewrapIT0_T1_T2_EE5valueEiE4typeELi0EEENS_4pairISC_SE_EESC_SD_SE_, symObjAddr: 0x6F74, symBinAddr: 0x10000B908, symSize: 0xB4 }
  - { offset: 0x349AE, size: 0x8, addend: 0x0, symName: __ZNSt3__128__copy_backward_trivial_implB8ne180100IPP5StateS3_EENS_4pairIPT_PT0_EES6_S6_S8_, symObjAddr: 0x7070, symBinAddr: 0x10000BA04, symSize: 0x90 }
  - { offset: 0x34A16, size: 0x8, addend: 0x0, symName: __ZNSt3__19make_pairB8ne180100IRPPP5StateS5_EENS_4pairINS_18__unwrap_ref_decayIT_E4typeENS7_IT0_E4typeEEEOS8_OSB_, symObjAddr: 0x7100, symBinAddr: 0x10000BA94, symSize: 0x38 }
  - { offset: 0x34A66, size: 0x8, addend: 0x0, symName: __ZNSt3__13maxB8ne180100ImNS_6__lessIvvEEEERKT_S5_S5_T0_, symObjAddr: 0x71A8, symBinAddr: 0x10000BB3C, symSize: 0x54 }
  - { offset: 0x34AC1, size: 0x8, addend: 0x0, symName: __ZNSt3__119__allocate_at_leastB8ne180100INS_9allocatorIPP5StateEEEENS_19__allocation_resultINS_16allocator_traitsIT_E7pointerEEERS8_m, symObjAddr: 0x7304, symBinAddr: 0x10000BC98, symSize: 0x40 }
  - { offset: 0x34B05, size: 0x8, addend: 0x0, symName: __ZNSt3__112__to_addressB8ne180100IP5StateEEPT_S4_, symObjAddr: 0x7AD0, symBinAddr: 0x10000C464, symSize: 0x14 }
  - { offset: 0x3590F, size: 0x8, addend: 0x0, symName: __ZSt28__throw_bad_array_new_lengthB8ne180100v, symObjAddr: 0x44E4, symBinAddr: 0x100008EB8, symSize: 0x34 }
  - { offset: 0x36DD0, size: 0x8, addend: 0x0, symName: __ZN11Game_EngineC2Ev, symObjAddr: 0x0, symBinAddr: 0x100005D2C, symSize: 0xE4 }
  - { offset: 0x36DFC, size: 0x8, addend: 0x0, symName: __ZN2sf7Vector2IjEC1Ev, symObjAddr: 0xE4, symBinAddr: 0x100005E10, symSize: 0x2C }
  - { offset: 0x36E28, size: 0x8, addend: 0x0, symName: __ZN2sf15ContextSettingsC1Ejjjjjjb, symObjAddr: 0x110, symBinAddr: 0x100005E3C, symSize: 0x68 }
  - { offset: 0x36EB4, size: 0x8, addend: 0x0, symName: __ZNSt3__15stackIP5StateNS_5dequeIS2_NS_9allocatorIS2_EEEEEC1B8ne180100Ev, symObjAddr: 0x1A4, symBinAddr: 0x100005EA4, symSize: 0x2C }
  - { offset: 0x36EDE, size: 0x8, addend: 0x0, symName: __ZN11Game_Engine10initWindowEv, symObjAddr: 0x1D0, symBinAddr: 0x100005ED0, symSize: 0x1A0 }
  - { offset: 0x36F06, size: 0x8, addend: 0x0, symName: __ZN11Game_Engine8initKeysEv, symObjAddr: 0x370, symBinAddr: 0x100006070, symSize: 0x188 }
  - { offset: 0x36F63, size: 0x8, addend: 0x0, symName: __ZN11Game_Engine10initStatesEv, symObjAddr: 0x4F8, symBinAddr: 0x1000061F8, symSize: 0x84 }
  - { offset: 0x36F8B, size: 0x8, addend: 0x0, symName: __ZNSt3__15stackIP5StateNS_5dequeIS2_NS_9allocatorIS2_EEEEED1Ev, symObjAddr: 0x57C, symBinAddr: 0x10000627C, symSize: 0x2C }
  - { offset: 0x36FB7, size: 0x8, addend: 0x0, symName: __ZN11Game_EngineC1Ev, symObjAddr: 0x5D4, symBinAddr: 0x1000062A8, symSize: 0x2C }
  - { offset: 0x36FE3, size: 0x8, addend: 0x0, symName: __ZN2sf6StringD1Ev, symObjAddr: 0x600, symBinAddr: 0x1000062D4, symSize: 0x2C }
  - { offset: 0x3734D, size: 0x8, addend: 0x0, symName: __ZNSt3__114basic_ifstreamIcNS_11char_traitsIcEEEC1EPKcj, symObjAddr: 0x62C, symBinAddr: 0x100006300, symSize: 0x15C }
  - { offset: 0x37397, size: 0x8, addend: 0x0, symName: __ZNKSt3__114basic_ifstreamIcNS_11char_traitsIcEEE7is_openEv, symObjAddr: 0x788, symBinAddr: 0x10000645C, symSize: 0x28 }
  - { offset: 0x373C4, size: 0x8, addend: 0x0, symName: __ZNKSt3__19basic_iosIcNS_11char_traitsIcEEEcvbB8ne180100Ev, symObjAddr: 0xAE4, symBinAddr: 0x100006784, symSize: 0x28 }
  - { offset: 0x373EA, size: 0x8, addend: 0x0, symName: __ZNSt3__13mapINS_12basic_stringIcNS_11char_traitsIcEENS_9allocatorIcEEEEiNS_4lessIS6_EENS4_INS_4pairIKS6_iEEEEEixERSA_, symObjAddr: 0xB0C, symBinAddr: 0x1000067AC, symSize: 0x80 }
  - { offset: 0x37421, size: 0x8, addend: 0x0, symName: __ZNSt3__114basic_ifstreamIcNS_11char_traitsIcEEE5closeEv, symObjAddr: 0xB8C, symBinAddr: 0x10000682C, symSize: 0x50 }
  - { offset: 0x3744E, size: 0x8, addend: 0x0, symName: __ZNSt3__114basic_ifstreamIcNS_11char_traitsIcEEED1Ev, symObjAddr: 0xBDC, symBinAddr: 0x10000687C, symSize: 0x40 }
  - { offset: 0x3747B, size: 0x8, addend: 0x0, symName: __ZNSt3__15stackIP5StateNS_5dequeIS2_NS_9allocatorIS2_EEEEE4pushB8ne180100EOS2_, symObjAddr: 0xC1C, symBinAddr: 0x1000068BC, symSize: 0x2C }
  - { offset: 0x374AF, size: 0x8, addend: 0x0, symName: __ZN11Game_Engine15updateDeltaTimeEv, symObjAddr: 0xC48, symBinAddr: 0x1000068E8, symSize: 0x44 }
  - { offset: 0x374D7, size: 0x8, addend: 0x0, symName: __ZN11Game_Engine16updateSFMLEventsEv, symObjAddr: 0xC8C, symBinAddr: 0x10000692C, symSize: 0x6C }
  - { offset: 0x374FF, size: 0x8, addend: 0x0, symName: __ZN11Game_Engine6updateEv, symObjAddr: 0xCF8, symBinAddr: 0x100006998, symSize: 0x108 }
  - { offset: 0x37543, size: 0x8, addend: 0x0, symName: __ZNKSt3__15stackIP5StateNS_5dequeIS2_NS_9allocatorIS2_EEEEE5emptyB8ne180100Ev, symObjAddr: 0xE00, symBinAddr: 0x100006AA0, symSize: 0x24 }
  - { offset: 0x37569, size: 0x8, addend: 0x0, symName: __ZNSt3__15stackIP5StateNS_5dequeIS2_NS_9allocatorIS2_EEEEE3topB8ne180100Ev, symObjAddr: 0xE24, symBinAddr: 0x100006AC4, symSize: 0x24 }
  - { offset: 0x3758F, size: 0x8, addend: 0x0, symName: __ZNSt3__15stackIP5StateNS_5dequeIS2_NS_9allocatorIS2_EEEEE3popB8ne180100Ev, symObjAddr: 0xE48, symBinAddr: 0x100006AE8, symSize: 0x24 }
  - { offset: 0x375B5, size: 0x8, addend: 0x0, symName: __ZN11Game_Engine4drawEv, symObjAddr: 0xE6C, symBinAddr: 0x100006B0C, symSize: 0xD0 }
  - { offset: 0x375DD, size: 0x8, addend: 0x0, symName: __ZN11Game_Engine3runEv, symObjAddr: 0xF3C, symBinAddr: 0x100006BDC, symSize: 0x50 }
  - { offset: 0x37605, size: 0x8, addend: 0x0, symName: __ZN11Game_EngineD2Ev, symObjAddr: 0xF8C, symBinAddr: 0x100006C2C, symSize: 0x128 }
  - { offset: 0x3764D, size: 0x8, addend: 0x0, symName: __ZN11Game_EngineD1Ev, symObjAddr: 0x10C4, symBinAddr: 0x100006D54, symSize: 0x2C }
  - { offset: 0x37679, size: 0x8, addend: 0x0, symName: __ZN11Game_EngineD0Ev, symObjAddr: 0x10F0, symBinAddr: 0x100006D80, symSize: 0x30 }
  - { offset: 0x376A5, size: 0x8, addend: 0x0, symName: __ZN2sf15ContextSettingsC2Ejjjjjjb, symObjAddr: 0x1120, symBinAddr: 0x100006DB0, symSize: 0x6C }
  - { offset: 0x37731, size: 0x8, addend: 0x0, symName: __ZNSt3__15stackIP5StateNS_5dequeIS2_NS_9allocatorIS2_EEEEED2Ev, symObjAddr: 0x118C, symBinAddr: 0x100006E1C, symSize: 0x2C }
  - { offset: 0x3775D, size: 0x8, addend: 0x0, symName: __ZNSt3__15dequeIP5StateNS_9allocatorIS2_EEED1B8ne180100Ev, symObjAddr: 0x11B8, symBinAddr: 0x100006E48, symSize: 0x2C }
  - { offset: 0x37787, size: 0x8, addend: 0x0, symName: __ZNSt3__15dequeIP5StateNS_9allocatorIS2_EEED2B8ne180100Ev, symObjAddr: 0x11E4, symBinAddr: 0x100006E74, symSize: 0xA0 }
  - { offset: 0x377DD, size: 0x8, addend: 0x0, symName: __ZNSt3__15dequeIP5StateNS_9allocatorIS2_EEE5clearEv, symObjAddr: 0x1284, symBinAddr: 0x100006F14, symSize: 0x188 }
  - { offset: 0x37839, size: 0x8, addend: 0x0, symName: __ZNKSt3__15dequeIP5StateNS_9allocatorIS2_EEE17__annotate_deleteB8ne180100Ev, symObjAddr: 0x140C, symBinAddr: 0x10000709C, symSize: 0x10 }
  - { offset: 0x3785F, size: 0x8, addend: 0x0, symName: __ZNSt3__114__split_bufferIPP5StateNS_9allocatorIS3_EEE5beginB8ne180100Ev, symObjAddr: 0x141C, symBinAddr: 0x1000070AC, symSize: 0x18 }
  - { offset: 0x37885, size: 0x8, addend: 0x0, symName: __ZNSt3__114__split_bufferIPP5StateNS_9allocatorIS3_EEE3endB8ne180100Ev, symObjAddr: 0x1434, symBinAddr: 0x1000070C4, symSize: 0x18 }
  - { offset: 0x378AB, size: 0x8, addend: 0x0, symName: __ZNSt3__116allocator_traitsINS_9allocatorIP5StateEEE10deallocateB8ne180100ERS4_PS3_m, symObjAddr: 0x144C, symBinAddr: 0x1000070DC, symSize: 0x34 }
  - { offset: 0x378ED, size: 0x8, addend: 0x0, symName: __ZNSt3__15dequeIP5StateNS_9allocatorIS2_EEE7__allocB8ne180100Ev, symObjAddr: 0x1480, symBinAddr: 0x100007110, symSize: 0x28 }
  - { offset: 0x37913, size: 0x8, addend: 0x0, symName: __ZNSt3__114__split_bufferIPP5StateNS_9allocatorIS3_EEED1Ev, symObjAddr: 0x14A8, symBinAddr: 0x100007138, symSize: 0x2C }
  - { offset: 0x3793F, size: 0x8, addend: 0x0, symName: __ZNSt3__15dequeIP5StateNS_9allocatorIS2_EEE5beginB8ne180100Ev, symObjAddr: 0x14D4, symBinAddr: 0x100007164, symSize: 0xB8 }
  - { offset: 0x37974, size: 0x8, addend: 0x0, symName: __ZNSt3__15dequeIP5StateNS_9allocatorIS2_EEE3endB8ne180100Ev, symObjAddr: 0x158C, symBinAddr: 0x10000721C, symSize: 0xBC }
  - { offset: 0x379B8, size: 0x8, addend: 0x0, symName: __ZNSt3__116allocator_traitsINS_9allocatorIP5StateEEE7destroyB8ne180100IS3_vEEvRS4_PT_, symObjAddr: 0x1678, symBinAddr: 0x100007308, symSize: 0x2C }
  - { offset: 0x379F5, size: 0x8, addend: 0x0, symName: __ZNKSt3__116__deque_iteratorIP5StatePS2_RS2_PS3_lLl512EEdeB8ne180100Ev, symObjAddr: 0x16A4, symBinAddr: 0x100007334, symSize: 0x18 }
  - { offset: 0x37A1B, size: 0x8, addend: 0x0, symName: __ZNSt3__116__deque_iteratorIP5StatePS2_RS2_PS3_lLl512EEppB8ne180100Ev, symObjAddr: 0x16BC, symBinAddr: 0x10000734C, symSize: 0x6C }
  - { offset: 0x37A41, size: 0x8, addend: 0x0, symName: __ZNSt3__15dequeIP5StateNS_9allocatorIS2_EEE6__sizeB8ne180100Ev, symObjAddr: 0x1728, symBinAddr: 0x1000073B8, symSize: 0x28 }
  - { offset: 0x37A67, size: 0x8, addend: 0x0, symName: __ZNKSt3__114__split_bufferIPP5StateNS_9allocatorIS3_EEE4sizeB8ne180100Ev, symObjAddr: 0x1750, symBinAddr: 0x1000073E0, symSize: 0x28 }
  - { offset: 0x37A8D, size: 0x8, addend: 0x0, symName: __ZNSt3__114__split_bufferIPP5StateNS_9allocatorIS3_EEE5frontB8ne180100Ev, symObjAddr: 0x1778, symBinAddr: 0x100007408, symSize: 0x18 }
  - { offset: 0x37AB3, size: 0x8, addend: 0x0, symName: __ZNSt3__114__split_bufferIPP5StateNS_9allocatorIS3_EEE9pop_frontB8ne180100Ev, symObjAddr: 0x1790, symBinAddr: 0x100007420, symSize: 0x2C }
  - { offset: 0x37AD9, size: 0x8, addend: 0x0, symName: __ZNKSt3__15dequeIP5StateNS_9allocatorIS2_EEE14__annotate_newB8ne180100Em, symObjAddr: 0x17BC, symBinAddr: 0x10000744C, symSize: 0x14 }
  - { offset: 0x37B0E, size: 0x8, addend: 0x0, symName: __ZNKSt3__114__split_bufferIPP5StateNS_9allocatorIS3_EEE5emptyB8ne180100Ev, symObjAddr: 0x17D0, symBinAddr: 0x100007460, symSize: 0x24 }
  - { offset: 0x37B34, size: 0x8, addend: 0x0, symName: __ZNSt3__116__deque_iteratorIP5StatePS2_RS2_PS3_lLl512EEC1B8ne180100ES5_S3_, symObjAddr: 0x17F4, symBinAddr: 0x100007484, symSize: 0x3C }
  - { offset: 0x37B7C, size: 0x8, addend: 0x0, symName: __ZNSt3__116__deque_iteratorIP5StatePS2_RS2_PS3_lLl512EEC2B8ne180100ES5_S3_, symObjAddr: 0x1830, symBinAddr: 0x1000074C0, symSize: 0x2C }
  - { offset: 0x37BC4, size: 0x8, addend: 0x0, symName: __ZNKSt3__15dequeIP5StateNS_9allocatorIS2_EEE4sizeB8ne180100Ev, symObjAddr: 0x185C, symBinAddr: 0x1000074EC, symSize: 0x28 }
  - { offset: 0x37BEA, size: 0x8, addend: 0x0, symName: __ZNKSt3__15dequeIP5StateNS_9allocatorIS2_EEE6__sizeB8ne180100Ev, symObjAddr: 0x1884, symBinAddr: 0x100007514, symSize: 0x28 }
  - { offset: 0x37C10, size: 0x8, addend: 0x0, symName: __ZNKSt3__117__compressed_pairImNS_9allocatorIP5StateEEE5firstB8ne180100Ev, symObjAddr: 0x18AC, symBinAddr: 0x10000753C, symSize: 0x24 }
  - { offset: 0x37C36, size: 0x8, addend: 0x0, symName: __ZNKSt3__122__compressed_pair_elemImLi0ELb0EE5__getB8ne180100Ev, symObjAddr: 0x18D0, symBinAddr: 0x100007560, symSize: 0x14 }
  - { offset: 0x37C5C, size: 0x8, addend: 0x0, symName: __ZNSt3__19allocatorIP5StateE7destroyB8ne180100EPS2_, symObjAddr: 0x1910, symBinAddr: 0x1000075A0, symSize: 0x14 }
  - { offset: 0x37C90, size: 0x8, addend: 0x0, symName: __ZNSt3__117__compressed_pairImNS_9allocatorIP5StateEEE5firstB8ne180100Ev, symObjAddr: 0x1924, symBinAddr: 0x1000075B4, symSize: 0x24 }
  - { offset: 0x37CB6, size: 0x8, addend: 0x0, symName: __ZNSt3__122__compressed_pair_elemImLi0ELb0EE5__getB8ne180100Ev, symObjAddr: 0x1948, symBinAddr: 0x1000075D8, symSize: 0x14 }
  - { offset: 0x37CDC, size: 0x8, addend: 0x0, symName: __ZNSt3__114__split_bufferIPP5StateNS_9allocatorIS3_EEE19__destruct_at_beginB8ne180100EPS3_, symObjAddr: 0x195C, symBinAddr: 0x1000075EC, symSize: 0x2C }
  - { offset: 0x37D10, size: 0x8, addend: 0x0, symName: __ZNSt3__114__split_bufferIPP5StateNS_9allocatorIS3_EEE19__destruct_at_beginEPS3_NS_17integral_constantIbLb1EEE, symObjAddr: 0x1988, symBinAddr: 0x100007618, symSize: 0x20 }
  - { offset: 0x37D51, size: 0x8, addend: 0x0, symName: __ZNSt3__19allocatorIP5StateE10deallocateB8ne180100EPS2_m, symObjAddr: 0x19A8, symBinAddr: 0x100007638, symSize: 0x40 }
  - { offset: 0x37D93, size: 0x8, addend: 0x0, symName: __ZNSt3__117__compressed_pairImNS_9allocatorIP5StateEEE6secondB8ne180100Ev, symObjAddr: 0x1B0C, symBinAddr: 0x100007678, symSize: 0x24 }
  - { offset: 0x37DB9, size: 0x8, addend: 0x0, symName: __ZNSt3__122__compressed_pair_elemINS_9allocatorIP5StateEELi1ELb1EE5__getB8ne180100Ev, symObjAddr: 0x1B30, symBinAddr: 0x10000769C, symSize: 0x14 }
  - { offset: 0x37DDF, size: 0x8, addend: 0x0, symName: __ZNSt3__114__split_bufferIPP5StateNS_9allocatorIS3_EEED2Ev, symObjAddr: 0x1B44, symBinAddr: 0x1000076B0, symSize: 0x84 }
  - { offset: 0x37E0B, size: 0x8, addend: 0x0, symName: __ZNSt3__114__split_bufferIPP5StateNS_9allocatorIS3_EEE5clearB8ne180100Ev, symObjAddr: 0x1BC8, symBinAddr: 0x100007734, symSize: 0x28 }
  - { offset: 0x37E31, size: 0x8, addend: 0x0, symName: __ZNSt3__116allocator_traitsINS_9allocatorIPP5StateEEE10deallocateB8ne180100ERS5_PS4_m, symObjAddr: 0x1BF0, symBinAddr: 0x10000775C, symSize: 0x34 }
  - { offset: 0x37E73, size: 0x8, addend: 0x0, symName: __ZNSt3__114__split_bufferIPP5StateNS_9allocatorIS3_EEE7__allocB8ne180100Ev, symObjAddr: 0x1C24, symBinAddr: 0x100007790, symSize: 0x28 }
  - { offset: 0x37E99, size: 0x8, addend: 0x0, symName: __ZNKSt3__114__split_bufferIPP5StateNS_9allocatorIS3_EEE8capacityB8ne180100Ev, symObjAddr: 0x1C4C, symBinAddr: 0x1000077B8, symSize: 0x40 }
  - { offset: 0x37EBF, size: 0x8, addend: 0x0, symName: __ZNSt3__114__split_bufferIPP5StateNS_9allocatorIS3_EEE17__destruct_at_endB8ne180100EPS3_, symObjAddr: 0x1C8C, symBinAddr: 0x1000077F8, symSize: 0x2C }
  - { offset: 0x37EF3, size: 0x8, addend: 0x0, symName: __ZNSt3__114__split_bufferIPP5StateNS_9allocatorIS3_EEE17__destruct_at_endB8ne180100EPS3_NS_17integral_constantIbLb0EEE, symObjAddr: 0x1CB8, symBinAddr: 0x100007824, symSize: 0x7C }
  - { offset: 0x37F34, size: 0x8, addend: 0x0, symName: __ZNSt3__116allocator_traitsINS_9allocatorIPP5StateEEE7destroyB8ne180100IS4_vEEvRS5_PT_, symObjAddr: 0x1D34, symBinAddr: 0x1000078A0, symSize: 0x2C }
  - { offset: 0x37F71, size: 0x8, addend: 0x0, symName: __ZNSt3__19allocatorIPP5StateE7destroyB8ne180100EPS3_, symObjAddr: 0x1D74, symBinAddr: 0x1000078E0, symSize: 0x14 }
  - { offset: 0x37FA5, size: 0x8, addend: 0x0, symName: __ZNSt3__19allocatorIPP5StateE10deallocateB8ne180100EPS3_m, symObjAddr: 0x1D88, symBinAddr: 0x1000078F4, symSize: 0x40 }
  - { offset: 0x37FE7, size: 0x8, addend: 0x0, symName: __ZNSt3__117__compressed_pairIPPP5StateNS_9allocatorIS3_EEE6secondB8ne180100Ev, symObjAddr: 0x1DC8, symBinAddr: 0x100007934, symSize: 0x24 }
  - { offset: 0x3800D, size: 0x8, addend: 0x0, symName: __ZNSt3__122__compressed_pair_elemINS_9allocatorIPP5StateEELi1ELb1EE5__getB8ne180100Ev, symObjAddr: 0x1DEC, symBinAddr: 0x100007958, symSize: 0x14 }
  - { offset: 0x38033, size: 0x8, addend: 0x0, symName: __ZNKSt3__114__split_bufferIPP5StateNS_9allocatorIS3_EEE9__end_capB8ne180100Ev, symObjAddr: 0x1E00, symBinAddr: 0x10000796C, symSize: 0x28 }
  - { offset: 0x38059, size: 0x8, addend: 0x0, symName: __ZNKSt3__117__compressed_pairIPPP5StateNS_9allocatorIS3_EEE5firstB8ne180100Ev, symObjAddr: 0x1E28, symBinAddr: 0x100007994, symSize: 0x24 }
  - { offset: 0x3807F, size: 0x8, addend: 0x0, symName: __ZNKSt3__122__compressed_pair_elemIPPP5StateLi0ELb0EE5__getB8ne180100Ev, symObjAddr: 0x1E4C, symBinAddr: 0x1000079B8, symSize: 0x14 }
  - { offset: 0x380A5, size: 0x8, addend: 0x0, symName: __ZN2sf6StringD2Ev, symObjAddr: 0x1E60, symBinAddr: 0x1000079CC, symSize: 0x2C }
  - { offset: 0x380D1, size: 0x8, addend: 0x0, symName: __ZNSt3__112basic_stringIjNS_11char_traitsIjEENS_9allocatorIjEEED1Ev, symObjAddr: 0x1E8C, symBinAddr: 0x1000079F8, symSize: 0x2C }
  - { offset: 0x380FB, size: 0x8, addend: 0x0, symName: __ZNSt3__112basic_stringIjNS_11char_traitsIjEENS_9allocatorIjEEED2Ev, symObjAddr: 0x1EB8, symBinAddr: 0x100007A24, symSize: 0x7C }
  - { offset: 0x38125, size: 0x8, addend: 0x0, symName: __ZNKSt3__112basic_stringIjNS_11char_traitsIjEENS_9allocatorIjEEE17__annotate_deleteB8ne180100Ev, symObjAddr: 0x1F34, symBinAddr: 0x100007AA0, symSize: 0x10 }
  - { offset: 0x3814B, size: 0x8, addend: 0x0, symName: __ZNKSt3__112basic_stringIjNS_11char_traitsIjEENS_9allocatorIjEEE9__is_longB8ne180100Ev, symObjAddr: 0x1F44, symBinAddr: 0x100007AB0, symSize: 0x34 }
  - { offset: 0x38171, size: 0x8, addend: 0x0, symName: __ZNSt3__116allocator_traitsINS_9allocatorIjEEE10deallocateB8ne180100ERS2_Pjm, symObjAddr: 0x1F78, symBinAddr: 0x100007AE4, symSize: 0x34 }
  - { offset: 0x381B3, size: 0x8, addend: 0x0, symName: __ZNSt3__112basic_stringIjNS_11char_traitsIjEENS_9allocatorIjEEE7__allocB8ne180100Ev, symObjAddr: 0x1FAC, symBinAddr: 0x100007B18, symSize: 0x24 }
  - { offset: 0x381D9, size: 0x8, addend: 0x0, symName: __ZNSt3__112basic_stringIjNS_11char_traitsIjEENS_9allocatorIjEEE18__get_long_pointerB8ne180100Ev, symObjAddr: 0x1FD0, symBinAddr: 0x100007B3C, symSize: 0x28 }
  - { offset: 0x381FF, size: 0x8, addend: 0x0, symName: __ZNKSt3__112basic_stringIjNS_11char_traitsIjEENS_9allocatorIjEEE14__get_long_capB8ne180100Ev, symObjAddr: 0x1FF8, symBinAddr: 0x100007B64, symSize: 0x30 }
  - { offset: 0x38225, size: 0x8, addend: 0x0, symName: __ZNKSt3__117__compressed_pairINS_12basic_stringIjNS_11char_traitsIjEENS_9allocatorIjEEE5__repES5_E5firstB8ne180100Ev, symObjAddr: 0x2028, symBinAddr: 0x100007B94, symSize: 0x24 }
  - { offset: 0x3824B, size: 0x8, addend: 0x0, symName: __ZNKSt3__122__compressed_pair_elemINS_12basic_stringIjNS_11char_traitsIjEENS_9allocatorIjEEE5__repELi0ELb0EE5__getB8ne180100Ev, symObjAddr: 0x204C, symBinAddr: 0x100007BB8, symSize: 0x14 }
  - { offset: 0x38271, size: 0x8, addend: 0x0, symName: __ZNSt3__19allocatorIjE10deallocateB8ne180100EPjm, symObjAddr: 0x2060, symBinAddr: 0x100007BCC, symSize: 0x40 }
  - { offset: 0x382B3, size: 0x8, addend: 0x0, symName: __ZNSt3__117__compressed_pairINS_12basic_stringIjNS_11char_traitsIjEENS_9allocatorIjEEE5__repES5_E6secondB8ne180100Ev, symObjAddr: 0x20A0, symBinAddr: 0x100007C0C, symSize: 0x24 }
  - { offset: 0x382D9, size: 0x8, addend: 0x0, symName: __ZNSt3__122__compressed_pair_elemINS_9allocatorIjEELi1ELb1EE5__getB8ne180100Ev, symObjAddr: 0x20C4, symBinAddr: 0x100007C30, symSize: 0x14 }
  - { offset: 0x382FF, size: 0x8, addend: 0x0, symName: __ZNSt3__117__compressed_pairINS_12basic_stringIjNS_11char_traitsIjEENS_9allocatorIjEEE5__repES5_E5firstB8ne180100Ev, symObjAddr: 0x20D8, symBinAddr: 0x100007C44, symSize: 0x24 }
  - { offset: 0x38325, size: 0x8, addend: 0x0, symName: __ZNSt3__122__compressed_pair_elemINS_12basic_stringIjNS_11char_traitsIjEENS_9allocatorIjEEE5__repELi0ELb0EE5__getB8ne180100Ev, symObjAddr: 0x20FC, symBinAddr: 0x100007C68, symSize: 0x14 }
  - { offset: 0x3834B, size: 0x8, addend: 0x0, symName: __ZNSt3__114basic_ifstreamIcNS_11char_traitsIcEEED2Ev, symObjAddr: 0x2110, symBinAddr: 0x100007C7C, symSize: 0x64 }
  - { offset: 0x38385, size: 0x8, addend: 0x0, symName: __ZTv0_n24_NSt3__114basic_ifstreamIcNS_11char_traitsIcEEED1Ev, symObjAddr: 0x2174, symBinAddr: 0x100007CE0, symSize: 0x28 }
  - { offset: 0x3839C, size: 0x8, addend: 0x0, symName: __ZN2sf7Vector2IjEC2Ev, symObjAddr: 0x219C, symBinAddr: 0x100007D08, symSize: 0x1C }
  - { offset: 0x383CD, size: 0x8, addend: 0x0, symName: __ZNSt3__15stackIP5StateNS_5dequeIS2_NS_9allocatorIS2_EEEEEC2B8ne180100Ev, symObjAddr: 0x256C, symBinAddr: 0x100007D24, symSize: 0x2C }
  - { offset: 0x383F7, size: 0x8, addend: 0x0, symName: __ZNSt3__15dequeIP5StateNS_9allocatorIS2_EEEC1B8ne180100Ev, symObjAddr: 0x2598, symBinAddr: 0x100007D50, symSize: 0x2C }
  - { offset: 0x38421, size: 0x8, addend: 0x0, symName: __ZNSt3__15dequeIP5StateNS_9allocatorIS2_EEEC2B8ne180100Ev, symObjAddr: 0x25C4, symBinAddr: 0x100007D7C, symSize: 0x5C }
  - { offset: 0x3844B, size: 0x8, addend: 0x0, symName: __ZNSt3__114__split_bufferIPP5StateNS_9allocatorIS3_EEEC1B8ne180100Ev, symObjAddr: 0x2620, symBinAddr: 0x100007DD8, symSize: 0x2C }
  - { offset: 0x3847A, size: 0x8, addend: 0x0, symName: __ZNSt3__117__compressed_pairImNS_9allocatorIP5StateEEEC1B8ne180100IiNS_18__default_init_tagEEEOT_OT0_, symObjAddr: 0x264C, symBinAddr: 0x100007E04, symSize: 0x3C }
  - { offset: 0x384D2, size: 0x8, addend: 0x0, symName: __ZNSt3__114__split_bufferIPP5StateNS_9allocatorIS3_EEEC2B8ne180100Ev, symObjAddr: 0x2688, symBinAddr: 0x100007E40, symSize: 0x50 }
  - { offset: 0x38501, size: 0x8, addend: 0x0, symName: __ZNSt3__117__compressed_pairIPPP5StateNS_9allocatorIS3_EEEC1B8ne180100IDnNS_18__default_init_tagEEEOT_OT0_, symObjAddr: 0x26D8, symBinAddr: 0x100007E90, symSize: 0x3C }
  - { offset: 0x38559, size: 0x8, addend: 0x0, symName: __ZNSt3__117__compressed_pairIPPP5StateNS_9allocatorIS3_EEEC2B8ne180100IDnNS_18__default_init_tagEEEOT_OT0_, symObjAddr: 0x2714, symBinAddr: 0x100007ECC, symSize: 0x40 }
  - { offset: 0x385B1, size: 0x8, addend: 0x0, symName: __ZNSt3__122__compressed_pair_elemIPPP5StateLi0ELb0EEC2B8ne180100IDnvEEOT_, symObjAddr: 0x2754, symBinAddr: 0x100007F0C, symSize: 0x1C }
  - { offset: 0x385F3, size: 0x8, addend: 0x0, symName: __ZNSt3__122__compressed_pair_elemINS_9allocatorIPP5StateEELi1ELb1EEC2B8ne180100ENS_18__default_init_tagE, symObjAddr: 0x2770, symBinAddr: 0x100007F28, symSize: 0x2C }
  - { offset: 0x38628, size: 0x8, addend: 0x0, symName: __ZNSt3__19allocatorIPP5StateEC2B8ne180100Ev, symObjAddr: 0x279C, symBinAddr: 0x100007F54, symSize: 0x2C }
  - { offset: 0x38652, size: 0x8, addend: 0x0, symName: __ZNSt3__116__non_trivial_ifILb1ENS_9allocatorIPP5StateEEEC2B8ne180100Ev, symObjAddr: 0x27C8, symBinAddr: 0x100007F80, symSize: 0x14 }
  - { offset: 0x3867C, size: 0x8, addend: 0x0, symName: __ZNSt3__117__compressed_pairImNS_9allocatorIP5StateEEEC2B8ne180100IiNS_18__default_init_tagEEEOT_OT0_, symObjAddr: 0x27DC, symBinAddr: 0x100007F94, symSize: 0x40 }
  - { offset: 0x386D4, size: 0x8, addend: 0x0, symName: __ZNSt3__122__compressed_pair_elemINS_9allocatorIP5StateEELi1ELb1EEC2B8ne180100ENS_18__default_init_tagE, symObjAddr: 0x281C, symBinAddr: 0x100007FD4, symSize: 0x2C }
  - { offset: 0x38709, size: 0x8, addend: 0x0, symName: __ZNSt3__19allocatorIP5StateEC2B8ne180100Ev, symObjAddr: 0x2848, symBinAddr: 0x100008000, symSize: 0x2C }
  - { offset: 0x38733, size: 0x8, addend: 0x0, symName: __ZNSt3__116__non_trivial_ifILb1ENS_9allocatorIP5StateEEEC2B8ne180100Ev, symObjAddr: 0x2874, symBinAddr: 0x10000802C, symSize: 0x14 }
  - { offset: 0x3875D, size: 0x8, addend: 0x0, symName: __ZNSt3__19basic_iosIcNS_11char_traitsIcEEEC2B8ne180100Ev, symObjAddr: 0x2C40, symBinAddr: 0x100008040, symSize: 0x3C }
  - { offset: 0x38787, size: 0x8, addend: 0x0, symName: __ZNSt3__113basic_istreamIcNS_11char_traitsIcEEEC2B8ne180100EPNS_15basic_streambufIcS2_EE, symObjAddr: 0x2C7C, symBinAddr: 0x10000807C, symSize: 0x64 }
  - { offset: 0x387CC, size: 0x8, addend: 0x0, symName: __ZNSt3__19basic_iosIcNS_11char_traitsIcEEE8setstateB8ne180100Ej, symObjAddr: 0x2CE0, symBinAddr: 0x1000080E0, symSize: 0x2C }
  - { offset: 0x38801, size: 0x8, addend: 0x0, symName: __ZNSt3__18ios_baseC2B8ne180100Ev, symObjAddr: 0x2D0C, symBinAddr: 0x10000810C, symSize: 0x24 }
  - { offset: 0x3882B, size: 0x8, addend: 0x0, symName: __ZNSt3__19basic_iosIcNS_11char_traitsIcEEE4initB8ne180100EPNS_15basic_streambufIcS2_EE, symObjAddr: 0x2D30, symBinAddr: 0x100008130, symSize: 0x44 }
  - { offset: 0x38862, size: 0x8, addend: 0x0, symName: __ZNSt3__111char_traitsIcE3eofB8ne180100Ev, symObjAddr: 0x2D74, symBinAddr: 0x100008174, symSize: 0x8 }
  - { offset: 0x38876, size: 0x8, addend: 0x0, symName: __ZNSt3__18ios_base8setstateB8ne180100Ej, symObjAddr: 0x2D7C, symBinAddr: 0x10000817C, symSize: 0x34 }
  - { offset: 0x388AD, size: 0x8, addend: 0x0, symName: __ZNKSt3__113basic_filebufIcNS_11char_traitsIcEEE7is_openEv, symObjAddr: 0x2DB0, symBinAddr: 0x1000081B0, symSize: 0x20 }
  - { offset: 0x388F3, size: 0x8, addend: 0x0, symName: __ZNKSt3__113basic_istreamIcNS_11char_traitsIcEEE6sentrycvbB8ne180100Ev, symObjAddr: 0x2F78, symBinAddr: 0x1000081D0, symSize: 0x1C }
  - { offset: 0x38919, size: 0x8, addend: 0x0, symName: __ZNSt3__112basic_stringIcNS_11char_traitsIcEENS_9allocatorIcEEE5clearB8ne180100Ev, symObjAddr: 0x2F94, symBinAddr: 0x1000081EC, symSize: 0x94 }
  - { offset: 0x38950, size: 0x8, addend: 0x0, symName: __ZNKSt3__18ios_base5widthB8ne180100Ev, symObjAddr: 0x3028, symBinAddr: 0x100008280, symSize: 0x18 }
  - { offset: 0x38978, size: 0x8, addend: 0x0, symName: __ZNKSt3__112basic_stringIcNS_11char_traitsIcEENS_9allocatorIcEEE8max_sizeB8ne180100Ev, symObjAddr: 0x3040, symBinAddr: 0x100008298, symSize: 0xA8 }
  - { offset: 0x389CA, size: 0x8, addend: 0x0, symName: __ZNSt3__114numeric_limitsIlE3maxB8ne180100Ev, symObjAddr: 0x30E8, symBinAddr: 0x100008340, symSize: 0x14 }
  - { offset: 0x389DE, size: 0x8, addend: 0x0, symName: __ZNKSt3__19basic_iosIcNS_11char_traitsIcEEE5rdbufB8ne180100Ev, symObjAddr: 0x3128, symBinAddr: 0x100008380, symSize: 0x24 }
  - { offset: 0x38A06, size: 0x8, addend: 0x0, symName: __ZNSt3__115basic_streambufIcNS_11char_traitsIcEEE5sgetcB8ne180100Ev, symObjAddr: 0x314C, symBinAddr: 0x1000083A4, symSize: 0x6C }
  - { offset: 0x38A2C, size: 0x8, addend: 0x0, symName: __ZNSt3__111char_traitsIcE11eq_int_typeB8ne180100Eii, symObjAddr: 0x31B8, symBinAddr: 0x100008410, symSize: 0x24 }
  - { offset: 0x38A5F, size: 0x8, addend: 0x0, symName: __ZNSt3__111char_traitsIcE12to_char_typeB8ne180100Ei, symObjAddr: 0x31DC, symBinAddr: 0x100008434, symSize: 0x18 }
  - { offset: 0x38AAB, size: 0x8, addend: 0x0, symName: __ZNKSt3__15ctypeIcE2isB8ne180100Ejc, symObjAddr: 0x31F4, symBinAddr: 0x10000844C, symSize: 0x74 }
  - { offset: 0x38AEF, size: 0x8, addend: 0x0, symName: __ZNSt3__115basic_streambufIcNS_11char_traitsIcEEE6sbumpcB8ne180100Ev, symObjAddr: 0x3268, symBinAddr: 0x1000084C0, symSize: 0x74 }
  - { offset: 0x38B15, size: 0x8, addend: 0x0, symName: __ZNSt3__18ios_base5widthB8ne180100El, symObjAddr: 0x32DC, symBinAddr: 0x100008534, symSize: 0x2C }
  - { offset: 0x38B5B, size: 0x8, addend: 0x0, symName: __ZNSt3__18ios_base18__setstate_nothrowB8ne180100Ej, symObjAddr: 0x3308, symBinAddr: 0x100008560, symSize: 0x5C }
  - { offset: 0x38B90, size: 0x8, addend: 0x0, symName: __ZNKSt3__19basic_iosIcNS_11char_traitsIcEEE10exceptionsB8ne180100Ev, symObjAddr: 0x3364, symBinAddr: 0x1000085BC, symSize: 0x24 }
  - { offset: 0x38BB6, size: 0x8, addend: 0x0, symName: __ZNSt3__111char_traitsIcE6assignB8ne180100ERcRKc, symObjAddr: 0x3410, symBinAddr: 0x1000085E0, symSize: 0x24 }
  - { offset: 0x38BE7, size: 0x8, addend: 0x0, symName: __ZNSt3__112basic_stringIcNS_11char_traitsIcEENS_9allocatorIcEEE18__get_long_pointerB8ne180100Ev, symObjAddr: 0x3434, symBinAddr: 0x100008604, symSize: 0x28 }
  - { offset: 0x38C0D, size: 0x8, addend: 0x0, symName: __ZNSt3__112basic_stringIcNS_11char_traitsIcEENS_9allocatorIcEEE15__set_long_sizeB8ne180100Em, symObjAddr: 0x345C, symBinAddr: 0x10000862C, symSize: 0x38 }
  - { offset: 0x38C42, size: 0x8, addend: 0x0, symName: __ZNSt3__112basic_stringIcNS_11char_traitsIcEENS_9allocatorIcEEE19__get_short_pointerB8ne180100Ev, symObjAddr: 0x3494, symBinAddr: 0x100008664, symSize: 0x28 }
  - { offset: 0x38C68, size: 0x8, addend: 0x0, symName: __ZNSt3__112basic_stringIcNS_11char_traitsIcEENS_9allocatorIcEEE16__set_short_sizeB8ne180100Em, symObjAddr: 0x34BC, symBinAddr: 0x10000868C, symSize: 0x78 }
  - { offset: 0x38C9D, size: 0x8, addend: 0x0, symName: __ZNKSt3__112basic_stringIcNS_11char_traitsIcEENS_9allocatorIcEEE17__annotate_shrinkB8ne180100Em, symObjAddr: 0x3534, symBinAddr: 0x100008704, symSize: 0x14 }
  - { offset: 0x38CD2, size: 0x8, addend: 0x0, symName: __ZNSt3__117__compressed_pairINS_12basic_stringIcNS_11char_traitsIcEENS_9allocatorIcEEE5__repES5_E5firstB8ne180100Ev, symObjAddr: 0x35DC, symBinAddr: 0x100008718, symSize: 0x24 }
  - { offset: 0x38CF8, size: 0x8, addend: 0x0, symName: __ZNSt3__122__compressed_pair_elemINS_12basic_stringIcNS_11char_traitsIcEENS_9allocatorIcEEE5__repELi0ELb0EE5__getB8ne180100Ev, symObjAddr: 0x3600, symBinAddr: 0x10000873C, symSize: 0x14 }
  - { offset: 0x38D1E, size: 0x8, addend: 0x0, symName: __ZNSt3__114pointer_traitsIPcE10pointer_toB8ne180100ERc, symObjAddr: 0x3614, symBinAddr: 0x100008750, symSize: 0x14 }
  - { offset: 0x38D4B, size: 0x8, addend: 0x0, symName: __ZNSt3__116allocator_traitsINS_9allocatorIcEEE8max_sizeB8ne180100IS2_vEEmRKS2_, symObjAddr: 0x3628, symBinAddr: 0x100008764, symSize: 0x24 }
  - { offset: 0x38D79, size: 0x8, addend: 0x0, symName: __ZNKSt3__112basic_stringIcNS_11char_traitsIcEENS_9allocatorIcEEE7__allocB8ne180100Ev, symObjAddr: 0x364C, symBinAddr: 0x100008788, symSize: 0x24 }
  - { offset: 0x38D9F, size: 0x8, addend: 0x0, symName: __ZNSt3__114numeric_limitsImE3maxB8ne180100Ev, symObjAddr: 0x3670, symBinAddr: 0x1000087AC, symSize: 0x14 }
  - { offset: 0x38DB3, size: 0x8, addend: 0x0, symName: __ZNKSt3__19allocatorIcE8max_sizeB8ne180100Ev, symObjAddr: 0x3684, symBinAddr: 0x1000087C0, symSize: 0x14 }
  - { offset: 0x38DD9, size: 0x8, addend: 0x0, symName: __ZNKSt3__117__compressed_pairINS_12basic_stringIcNS_11char_traitsIcEENS_9allocatorIcEEE5__repES5_E6secondB8ne180100Ev, symObjAddr: 0x3698, symBinAddr: 0x1000087D4, symSize: 0x24 }
  - { offset: 0x38DFF, size: 0x8, addend: 0x0, symName: __ZNKSt3__122__compressed_pair_elemINS_9allocatorIcEELi1ELb1EE5__getB8ne180100Ev, symObjAddr: 0x36BC, symBinAddr: 0x1000087F8, symSize: 0x14 }
  - { offset: 0x38E25, size: 0x8, addend: 0x0, symName: __ZNSt3__123__libcpp_numeric_limitsImLb1EE3maxB8ne180100Ev, symObjAddr: 0x36D0, symBinAddr: 0x10000880C, symSize: 0x8 }
  - { offset: 0x38E39, size: 0x8, addend: 0x0, symName: __ZNSt3__123__libcpp_numeric_limitsIlLb1EE3maxB8ne180100Ev, symObjAddr: 0x36D8, symBinAddr: 0x100008814, symSize: 0x8 }
  - { offset: 0x38E4D, size: 0x8, addend: 0x0, symName: __ZNKSt3__18ios_base5rdbufB8ne180100Ev, symObjAddr: 0x36E0, symBinAddr: 0x10000881C, symSize: 0x18 }
  - { offset: 0x38E73, size: 0x8, addend: 0x0, symName: __ZNSt3__111char_traitsIcE11to_int_typeB8ne180100Ec, symObjAddr: 0x36F8, symBinAddr: 0x100008834, symSize: 0x14 }
  - { offset: 0x38E97, size: 0x8, addend: 0x0, symName: __Z7isasciii, symObjAddr: 0x370C, symBinAddr: 0x100008848, symSize: 0x20 }
  - { offset: 0x38EC4, size: 0x8, addend: 0x0, symName: __ZNKSt3__18ios_base10exceptionsB8ne180100Ev, symObjAddr: 0x372C, symBinAddr: 0x100008868, symSize: 0x18 }
  - { offset: 0x38EEC, size: 0x8, addend: 0x0, symName: __ZNKSt3__19basic_iosIcNS_11char_traitsIcEEE4failB8ne180100Ev, symObjAddr: 0x3744, symBinAddr: 0x100008880, symSize: 0x24 }
  - { offset: 0x38F12, size: 0x8, addend: 0x0, symName: __ZNKSt3__18ios_base4failB8ne180100Ev, symObjAddr: 0x3768, symBinAddr: 0x1000088A4, symSize: 0x24 }
  - { offset: 0x38F4E, size: 0x8, addend: 0x0, symName: __ZNSt3__16__treeINS_12__value_typeINS_12basic_stringIcNS_11char_traitsIcEENS_9allocatorIcEEEEiEENS_19__map_value_compareIS7_S8_NS_4lessIS7_EELb1EEENS5_IS8_EEE25__emplace_unique_key_argsIS7_JRKNS_21piecewise_construct_tENS_5tupleIJRKS7_EEENSJ_IJEEEEEENS_4pairINS_15__tree_iteratorIS8_PNS_11__tree_nodeIS8_PvEElEEbEERKT_DpOT0_, symObjAddr: 0x378C, symBinAddr: 0x1000088C8, symSize: 0xF8 }
  - { offset: 0x39027, size: 0x8, addend: 0x0, symName: __ZNKSt3__115__tree_iteratorINS_12__value_typeINS_12basic_stringIcNS_11char_traitsIcEENS_9allocatorIcEEEEiEEPNS_11__tree_nodeIS8_PvEElEptB8ne180100Ev, symObjAddr: 0x38B4, symBinAddr: 0x1000089F0, symSize: 0x2C }
  - { offset: 0x3904D, size: 0x8, addend: 0x0, symName: __ZNSt3__16__treeINS_12__value_typeINS_12basic_stringIcNS_11char_traitsIcEENS_9allocatorIcEEEEiEENS_19__map_value_compareIS7_S8_NS_4lessIS7_EELb1EEENS5_IS8_EEE16__construct_nodeIJRKNS_21piecewise_construct_tENS_5tupleIJRKS7_EEENSJ_IJEEEEEENS_10unique_ptrINS_11__tree_nodeIS8_PvEENS_22__tree_node_destructorINS5_ISR_EEEEEEDpOT_, symObjAddr: 0x3A4C, symBinAddr: 0x100008A1C, symSize: 0x120 }
  - { offset: 0x390D8, size: 0x8, addend: 0x0, symName: __ZNSt3__16__treeINS_12__value_typeINS_12basic_stringIcNS_11char_traitsIcEENS_9allocatorIcEEEEiEENS_19__map_value_compareIS7_S8_NS_4lessIS7_EELb1EEENS5_IS8_EEE16__insert_node_atEPNS_15__tree_end_nodeIPNS_16__tree_node_baseIPvEEEERSJ_SJ_, symObjAddr: 0x3B6C, symBinAddr: 0x100008B3C, symSize: 0xC4 }
  - { offset: 0x3912D, size: 0x8, addend: 0x0, symName: __ZNKSt3__110unique_ptrINS_11__tree_nodeINS_12__value_typeINS_12basic_stringIcNS_11char_traitsIcEENS_9allocatorIcEEEEiEEPvEENS_22__tree_node_destructorINS6_ISB_EEEEE3getB8ne180100Ev, symObjAddr: 0x3C30, symBinAddr: 0x100008C00, symSize: 0x28 }
  - { offset: 0x39153, size: 0x8, addend: 0x0, symName: __ZNSt3__110unique_ptrINS_11__tree_nodeINS_12__value_typeINS_12basic_stringIcNS_11char_traitsIcEENS_9allocatorIcEEEEiEEPvEENS_22__tree_node_destructorINS6_ISB_EEEEE7releaseB8ne180100Ev, symObjAddr: 0x3C58, symBinAddr: 0x100008C28, symSize: 0x44 }
  - { offset: 0x39188, size: 0x8, addend: 0x0, symName: __ZNSt3__110unique_ptrINS_11__tree_nodeINS_12__value_typeINS_12basic_stringIcNS_11char_traitsIcEENS_9allocatorIcEEEEiEEPvEENS_22__tree_node_destructorINS6_ISB_EEEEED1B8ne180100Ev, symObjAddr: 0x3C9C, symBinAddr: 0x100008C6C, symSize: 0x2C }
  - { offset: 0x391B2, size: 0x8, addend: 0x0, symName: __ZNSt3__115__tree_iteratorINS_12__value_typeINS_12basic_stringIcNS_11char_traitsIcEENS_9allocatorIcEEEEiEEPNS_11__tree_nodeIS8_PvEElEC1B8ne180100ESC_, symObjAddr: 0x3CC8, symBinAddr: 0x100008C98, symSize: 0x34 }
  - { offset: 0x391F0, size: 0x8, addend: 0x0, symName: __ZNSt3__14pairINS_15__tree_iteratorINS_12__value_typeINS_12basic_stringIcNS_11char_traitsIcEENS_9allocatorIcEEEEiEEPNS_11__tree_nodeIS9_PvEElEEbEC1B8ne180100ISE_RbTnNS_9enable_ifIXclsr10_CheckArgsE17__enable_implicitIT_T0_EEEiE4typeELi0EEEOSJ_OSK_, symObjAddr: 0x3CFC, symBinAddr: 0x100008CCC, symSize: 0x3C }
  - { offset: 0x3924E, size: 0x8, addend: 0x0, symName: __ZNSt3__116allocator_traitsINS_9allocatorINS_11__tree_nodeINS_12__value_typeINS_12basic_stringIcNS_11char_traitsIcEENS1_IcEEEEiEEPvEEEEE8allocateB8ne180100ERSC_m, symObjAddr: 0x4334, symBinAddr: 0x100008D08, symSize: 0x2C }
  - { offset: 0x39281, size: 0x8, addend: 0x0, symName: __ZNSt3__122__tree_node_destructorINS_9allocatorINS_11__tree_nodeINS_12__value_typeINS_12basic_stringIcNS_11char_traitsIcEENS1_IcEEEEiEEPvEEEEEC1B8ne180100ERSC_b, symObjAddr: 0x4360, symBinAddr: 0x100008D34, symSize: 0x40 }
  - { offset: 0x392CE, size: 0x8, addend: 0x0, symName: __ZNSt3__110unique_ptrINS_11__tree_nodeINS_12__value_typeINS_12basic_stringIcNS_11char_traitsIcEENS_9allocatorIcEEEEiEEPvEENS_22__tree_node_destructorINS6_ISB_EEEEEC1B8ne180100ILb1EvEEPSB_NS_16__dependent_typeINS_27__unique_ptr_deleter_sfinaeISE_EEXT_EE20__good_rval_ref_typeE, symObjAddr: 0x43A0, symBinAddr: 0x100008D74, symSize: 0x3C }
  - { offset: 0x3931F, size: 0x8, addend: 0x0, symName: __ZNSt3__116allocator_traitsINS_9allocatorINS_11__tree_nodeINS_12__value_typeINS_12basic_stringIcNS_11char_traitsIcEENS1_IcEEEEiEEPvEEEEE9constructB8ne180100INS_4pairIKS8_iEEJRKNS_21piecewise_construct_tENS_5tupleIJRSG_EEENSL_IJEEEEvEEvRSC_PT_DpOT0_, symObjAddr: 0x43DC, symBinAddr: 0x100008DB0, symSize: 0x44 }
  - { offset: 0x393A2, size: 0x8, addend: 0x0, symName: __ZNKSt3__110unique_ptrINS_11__tree_nodeINS_12__value_typeINS_12basic_stringIcNS_11char_traitsIcEENS_9allocatorIcEEEEiEEPvEENS_22__tree_node_destructorINS6_ISB_EEEEEptB8ne180100Ev, symObjAddr: 0x4420, symBinAddr: 0x100008DF4, symSize: 0x28 }
  - { offset: 0x393C8, size: 0x8, addend: 0x0, symName: __ZNSt3__110unique_ptrINS_11__tree_nodeINS_12__value_typeINS_12basic_stringIcNS_11char_traitsIcEENS_9allocatorIcEEEEiEEPvEENS_22__tree_node_destructorINS6_ISB_EEEEE11get_deleterB8ne180100Ev, symObjAddr: 0x4448, symBinAddr: 0x100008E1C, symSize: 0x24 }
  - { offset: 0x393EE, size: 0x8, addend: 0x0, symName: __ZNSt3__19allocatorINS_11__tree_nodeINS_12__value_typeINS_12basic_stringIcNS_11char_traitsIcEENS0_IcEEEEiEEPvEEE8allocateB8ne180100Em, symObjAddr: 0x446C, symBinAddr: 0x100008E40, symSize: 0x54 }
  - { offset: 0x3942C, size: 0x8, addend: 0x0, symName: __ZNSt3__116allocator_traitsINS_9allocatorINS_11__tree_nodeINS_12__value_typeINS_12basic_stringIcNS_11char_traitsIcEENS1_IcEEEEiEEPvEEEEE8max_sizeB8ne180100ISC_vEEmRKSC_, symObjAddr: 0x44C0, symBinAddr: 0x100008E94, symSize: 0x24 }
  - { offset: 0x3945A, size: 0x8, addend: 0x0, symName: __ZNKSt3__19allocatorINS_11__tree_nodeINS_12__value_typeINS_12basic_stringIcNS_11char_traitsIcEENS0_IcEEEEiEEPvEEE8max_sizeB8ne180100Ev, symObjAddr: 0x4578, symBinAddr: 0x100008F4C, symSize: 0x14 }
  - { offset: 0x39480, size: 0x8, addend: 0x0, symName: __ZNSt3__122__tree_node_destructorINS_9allocatorINS_11__tree_nodeINS_12__value_typeINS_12basic_stringIcNS_11char_traitsIcEENS1_IcEEEEiEEPvEEEEEC2B8ne180100ERSC_b, symObjAddr: 0x45DC, symBinAddr: 0x100008FB0, symSize: 0x30 }
  - { offset: 0x394C8, size: 0x8, addend: 0x0, symName: __ZNSt3__110unique_ptrINS_11__tree_nodeINS_12__value_typeINS_12basic_stringIcNS_11char_traitsIcEENS_9allocatorIcEEEEiEEPvEENS_22__tree_node_destructorINS6_ISB_EEEEEC2B8ne180100ILb1EvEEPSB_NS_16__dependent_typeINS_27__unique_ptr_deleter_sfinaeISE_EEXT_EE20__good_rval_ref_typeE, symObjAddr: 0x460C, symBinAddr: 0x100008FE0, symSize: 0x48 }
  - { offset: 0x39519, size: 0x8, addend: 0x0, symName: __ZNSt3__117__compressed_pairIPNS_11__tree_nodeINS_12__value_typeINS_12basic_stringIcNS_11char_traitsIcEENS_9allocatorIcEEEEiEEPvEENS_22__tree_node_destructorINS6_ISB_EEEEEC1B8ne180100IRSC_SF_EEOT_OT0_, symObjAddr: 0x4654, symBinAddr: 0x100009028, symSize: 0x3C }
  - { offset: 0x39571, size: 0x8, addend: 0x0, symName: __ZNSt3__117__compressed_pairIPNS_11__tree_nodeINS_12__value_typeINS_12basic_stringIcNS_11char_traitsIcEENS_9allocatorIcEEEEiEEPvEENS_22__tree_node_destructorINS6_ISB_EEEEEC2B8ne180100IRSC_SF_EEOT_OT0_, symObjAddr: 0x4690, symBinAddr: 0x100009064, symSize: 0x48 }
  - { offset: 0x395C9, size: 0x8, addend: 0x0, symName: __ZNSt3__122__compressed_pair_elemIPNS_11__tree_nodeINS_12__value_typeINS_12basic_stringIcNS_11char_traitsIcEENS_9allocatorIcEEEEiEEPvEELi0ELb0EEC2B8ne180100IRSC_vEEOT_, symObjAddr: 0x46D8, symBinAddr: 0x1000090AC, symSize: 0x24 }
  - { offset: 0x3960B, size: 0x8, addend: 0x0, symName: __ZNSt3__122__compressed_pair_elemINS_22__tree_node_destructorINS_9allocatorINS_11__tree_nodeINS_12__value_typeINS_12basic_stringIcNS_11char_traitsIcEENS2_IcEEEEiEEPvEEEEEELi1ELb0EEC2B8ne180100ISE_vEEOT_, symObjAddr: 0x46FC, symBinAddr: 0x1000090D0, symSize: 0x24 }
  - { offset: 0x3964D, size: 0x8, addend: 0x0, symName: __ZNSt3__19allocatorINS_11__tree_nodeINS_12__value_typeINS_12basic_stringIcNS_11char_traitsIcEENS0_IcEEEEiEEPvEEE9constructB8ne180100INS_4pairIKS7_iEEJRKNS_21piecewise_construct_tENS_5tupleIJRSE_EEENSJ_IJEEEEEEvPT_DpOT0_, symObjAddr: 0x4720, symBinAddr: 0x1000090F4, symSize: 0x44 }
  - { offset: 0x396CD, size: 0x8, addend: 0x0, symName: __ZNSt3__14pairIKNS_12basic_stringIcNS_11char_traitsIcEENS_9allocatorIcEEEEiEC1B8ne180100IJRS7_EJEEENS_21piecewise_construct_tENS_5tupleIJDpT_EEENSC_IJDpT0_EEE, symObjAddr: 0x4764, symBinAddr: 0x100009138, symSize: 0x3C }
  - { offset: 0x39737, size: 0x8, addend: 0x0, symName: __ZNSt3__14pairIKNS_12basic_stringIcNS_11char_traitsIcEENS_9allocatorIcEEEEiEC1B8ne180100IJRS7_EJEJLm0EETpTnmJEEENS_21piecewise_construct_tERNS_5tupleIJDpT_EEERNSC_IJDpT0_EEENS_15__tuple_indicesIJXspT1_EEEENSL_IJXspT2_EEEE, symObjAddr: 0x47A0, symBinAddr: 0x100009174, symSize: 0x3C }
  - { offset: 0x397CA, size: 0x8, addend: 0x0, symName: __ZNSt3__14pairIKNS_12basic_stringIcNS_11char_traitsIcEENS_9allocatorIcEEEEiEC2B8ne180100IJRS7_EJEJLm0EETpTnmJEEENS_21piecewise_construct_tERNS_5tupleIJDpT_EEERNSC_IJDpT0_EEENS_15__tuple_indicesIJXspT1_EEEENSL_IJXspT2_EEEE, symObjAddr: 0x47DC, symBinAddr: 0x1000091B0, symSize: 0x48 }
  - { offset: 0x3985D, size: 0x8, addend: 0x0, symName: __ZNSt3__112__tuple_leafILm0ERKNS_12basic_stringIcNS_11char_traitsIcEENS_9allocatorIcEEEELb0EE3getB8ne180100Ev, symObjAddr: 0x4848, symBinAddr: 0x10000921C, symSize: 0x18 }
  - { offset: 0x39883, size: 0x8, addend: 0x0, symName: __ZNKSt3__117__compressed_pairIPNS_11__tree_nodeINS_12__value_typeINS_12basic_stringIcNS_11char_traitsIcEENS_9allocatorIcEEEEiEEPvEENS_22__tree_node_destructorINS6_ISB_EEEEE5firstB8ne180100Ev, symObjAddr: 0x4860, symBinAddr: 0x100009234, symSize: 0x24 }
  - { offset: 0x398A9, size: 0x8, addend: 0x0, symName: __ZNKSt3__122__compressed_pair_elemIPNS_11__tree_nodeINS_12__value_typeINS_12basic_stringIcNS_11char_traitsIcEENS_9allocatorIcEEEEiEEPvEELi0ELb0EE5__getB8ne180100Ev, symObjAddr: 0x4884, symBinAddr: 0x100009258, symSize: 0x14 }
  - { offset: 0x398CF, size: 0x8, addend: 0x0, symName: __ZNSt3__117__compressed_pairIPNS_11__tree_nodeINS_12__value_typeINS_12basic_stringIcNS_11char_traitsIcEENS_9allocatorIcEEEEiEEPvEENS_22__tree_node_destructorINS6_ISB_EEEEE6secondB8ne180100Ev, symObjAddr: 0x4898, symBinAddr: 0x10000926C, symSize: 0x28 }
  - { offset: 0x398F5, size: 0x8, addend: 0x0, symName: __ZNSt3__122__compressed_pair_elemINS_22__tree_node_destructorINS_9allocatorINS_11__tree_nodeINS_12__value_typeINS_12basic_stringIcNS_11char_traitsIcEENS2_IcEEEEiEEPvEEEEEELi1ELb0EE5__getB8ne180100Ev, symObjAddr: 0x48C0, symBinAddr: 0x100009294, symSize: 0x14 }
  - { offset: 0x3991B, size: 0x8, addend: 0x0, symName: __ZNSt3__16__treeINS_12__value_typeINS_12basic_stringIcNS_11char_traitsIcEENS_9allocatorIcEEEEiEENS_19__map_value_compareIS7_S8_NS_4lessIS7_EELb1EEENS5_IS8_EEE4sizeB8ne180100Ev, symObjAddr: 0x4BE0, symBinAddr: 0x1000095B4, symSize: 0x28 }
  - { offset: 0x39941, size: 0x8, addend: 0x0, symName: __ZNSt3__116__tree_node_baseIPvE12__set_parentB8ne180100EPS2_, symObjAddr: 0x4DDC, symBinAddr: 0x100009770, symSize: 0x20 }
  - { offset: 0x39976, size: 0x8, addend: 0x0, symName: __ZNSt3__117__compressed_pairImNS_19__map_value_compareINS_12basic_stringIcNS_11char_traitsIcEENS_9allocatorIcEEEENS_12__value_typeIS7_iEENS_4lessIS7_EELb1EEEE5firstB8ne180100Ev, symObjAddr: 0x4DFC, symBinAddr: 0x100009790, symSize: 0x24 }
  - { offset: 0x3999C, size: 0x8, addend: 0x0, symName: __ZNSt3__117__compressed_pairIPNS_11__tree_nodeINS_12__value_typeINS_12basic_stringIcNS_11char_traitsIcEENS_9allocatorIcEEEEiEEPvEENS_22__tree_node_destructorINS6_ISB_EEEEE5firstB8ne180100Ev, symObjAddr: 0x4E20, symBinAddr: 0x1000097B4, symSize: 0x24 }
  - { offset: 0x399C2, size: 0x8, addend: 0x0, symName: __ZNSt3__122__compressed_pair_elemIPNS_11__tree_nodeINS_12__value_typeINS_12basic_stringIcNS_11char_traitsIcEENS_9allocatorIcEEEEiEEPvEELi0ELb0EE5__getB8ne180100Ev, symObjAddr: 0x4E44, symBinAddr: 0x1000097D8, symSize: 0x14 }
  - { offset: 0x399E8, size: 0x8, addend: 0x0, symName: __ZNSt3__110unique_ptrINS_11__tree_nodeINS_12__value_typeINS_12basic_stringIcNS_11char_traitsIcEENS_9allocatorIcEEEEiEEPvEENS_22__tree_node_destructorINS6_ISB_EEEEED2B8ne180100Ev, symObjAddr: 0x4E58, symBinAddr: 0x1000097EC, symSize: 0x30 }
  - { offset: 0x39A12, size: 0x8, addend: 0x0, symName: __ZNSt3__110unique_ptrINS_11__tree_nodeINS_12__value_typeINS_12basic_stringIcNS_11char_traitsIcEENS_9allocatorIcEEEEiEEPvEENS_22__tree_node_destructorINS6_ISB_EEEEE5resetB8ne180100EPSB_, symObjAddr: 0x4E88, symBinAddr: 0x10000981C, symSize: 0x70 }
  - { offset: 0x39A56, size: 0x8, addend: 0x0, symName: __ZNSt3__122__tree_node_destructorINS_9allocatorINS_11__tree_nodeINS_12__value_typeINS_12basic_stringIcNS_11char_traitsIcEENS1_IcEEEEiEEPvEEEEEclB8ne180100EPSB_, symObjAddr: 0x4EF8, symBinAddr: 0x10000988C, symSize: 0x90 }
  - { offset: 0x39A8B, size: 0x8, addend: 0x0, symName: __ZNSt3__115__tree_iteratorINS_12__value_typeINS_12basic_stringIcNS_11char_traitsIcEENS_9allocatorIcEEEEiEEPNS_11__tree_nodeIS8_PvEElEC2B8ne180100ESC_, symObjAddr: 0x4F88, symBinAddr: 0x10000991C, symSize: 0x20 }
  - { offset: 0x39AC4, size: 0x8, addend: 0x0, symName: __ZNSt3__14pairINS_15__tree_iteratorINS_12__value_typeINS_12basic_stringIcNS_11char_traitsIcEENS_9allocatorIcEEEEiEEPNS_11__tree_nodeIS9_PvEElEEbEC2B8ne180100ISE_RbTnNS_9enable_ifIXclsr10_CheckArgsE17__enable_implicitIT_T0_EEEiE4typeELi0EEEOSJ_OSK_, symObjAddr: 0x4FA8, symBinAddr: 0x10000993C, symSize: 0x38 }
  - { offset: 0x39B22, size: 0x8, addend: 0x0, symName: __ZNSt3__15tupleIJRKNS_12basic_stringIcNS_11char_traitsIcEENS_9allocatorIcEEEEEEC1B8ne180100INS_4_AndETnNS_9enable_ifIXsrT_IJNS_17integral_constantIbLb1EEENS_21is_copy_constructibleIS8_EEEE5valueEiE4typeELi0EEES8_, symObjAddr: 0x4FE0, symBinAddr: 0x100009974, symSize: 0x34 }
  - { offset: 0x39B6B, size: 0x8, addend: 0x0, symName: __ZNSt3__15tupleIJRKNS_12basic_stringIcNS_11char_traitsIcEENS_9allocatorIcEEEEEEC2B8ne180100INS_4_AndETnNS_9enable_ifIXsrT_IJNS_17integral_constantIbLb1EEENS_21is_copy_constructibleIS8_EEEE5valueEiE4typeELi0EEES8_, symObjAddr: 0x5014, symBinAddr: 0x1000099A8, symSize: 0x34 }
  - { offset: 0x39BB4, size: 0x8, addend: 0x0, symName: __ZNSt3__112__tuple_implINS_15__tuple_indicesIJLm0EEEEJRKNS_12basic_stringIcNS_11char_traitsIcEENS_9allocatorIcEEEEEEC1B8ne180100IJLm0EEJSA_ETpTnmJEJEJSA_EEENS1_IJXspT_EEEENS_13__tuple_typesIJDpT0_EEENS1_IJXspT1_EEEENSE_IJDpT2_EEEDpOT3_, symObjAddr: 0x5048, symBinAddr: 0x1000099DC, symSize: 0x34 }
  - { offset: 0x39C51, size: 0x8, addend: 0x0, symName: __ZNSt3__112__tuple_implINS_15__tuple_indicesIJLm0EEEEJRKNS_12basic_stringIcNS_11char_traitsIcEENS_9allocatorIcEEEEEEC2B8ne180100IJLm0EEJSA_ETpTnmJEJEJSA_EEENS1_IJXspT_EEEENS_13__tuple_typesIJDpT0_EEENS1_IJXspT1_EEEENSE_IJDpT2_EEEDpOT3_, symObjAddr: 0x507C, symBinAddr: 0x100009A10, symSize: 0x34 }
  - { offset: 0x39CEE, size: 0x8, addend: 0x0, symName: __ZNSt3__112__tuple_leafILm0ERKNS_12basic_stringIcNS_11char_traitsIcEENS_9allocatorIcEEEELb0EEC2B8ne180100IS8_vEEOT_, symObjAddr: 0x50B0, symBinAddr: 0x100009A44, symSize: 0x20 }
  - { offset: 0x39D31, size: 0x8, addend: 0x0, symName: __ZNSt3__114pointer_traitsIPNS_12__value_typeINS_12basic_stringIcNS_11char_traitsIcEENS_9allocatorIcEEEEiEEE10pointer_toB8ne180100ERS8_, symObjAddr: 0x50D0, symBinAddr: 0x100009A64, symSize: 0x14 }
  - { offset: 0x39D54, size: 0x8, addend: 0x0, symName: __ZNKSt3__115__tree_iteratorINS_12__value_typeINS_12basic_stringIcNS_11char_traitsIcEENS_9allocatorIcEEEEiEEPNS_11__tree_nodeIS8_PvEElE8__get_npB8ne180100Ev, symObjAddr: 0x50E4, symBinAddr: 0x100009A78, symSize: 0x18 }
  - { offset: 0x39D7A, size: 0x8, addend: 0x0, symName: __ZNSt3__15dequeIP5StateNS_9allocatorIS2_EEE9push_backEOS2_, symObjAddr: 0x50FC, symBinAddr: 0x100009A90, symSize: 0xA4 }
  - { offset: 0x39DC0, size: 0x8, addend: 0x0, symName: __ZNKSt3__15dequeIP5StateNS_9allocatorIS2_EEE12__back_spareB8ne180100Ev, symObjAddr: 0x51A0, symBinAddr: 0x100009B34, symSize: 0x54 }
  - { offset: 0x39DE6, size: 0x8, addend: 0x0, symName: __ZNSt3__15dequeIP5StateNS_9allocatorIS2_EEE19__add_back_capacityEv, symObjAddr: 0x51F4, symBinAddr: 0x100009B88, symSize: 0x338 }
  - { offset: 0x39E9C, size: 0x8, addend: 0x0, symName: __ZNKSt3__15dequeIP5StateNS_9allocatorIS2_EEE24__annotate_increase_backB8ne180100Em, symObjAddr: 0x552C, symBinAddr: 0x100009EC0, symSize: 0x14 }
  - { offset: 0x39ED6, size: 0x8, addend: 0x0, symName: __ZNSt3__116allocator_traitsINS_9allocatorIP5StateEEE9constructB8ne180100IS3_JS3_EvEEvRS4_PT_DpOT0_, symObjAddr: 0x5540, symBinAddr: 0x100009ED4, symSize: 0x34 }
  - { offset: 0x39F2F, size: 0x8, addend: 0x0, symName: __ZNKSt3__15dequeIP5StateNS_9allocatorIS2_EEE10__capacityB8ne180100Ev, symObjAddr: 0x5574, symBinAddr: 0x100009F08, symSize: 0x58 }
  - { offset: 0x39F55, size: 0x8, addend: 0x0, symName: __ZNKSt3__15dequeIP5StateNS_9allocatorIS2_EEE13__front_spareB8ne180100Ev, symObjAddr: 0x55CC, symBinAddr: 0x100009F60, symSize: 0x18 }
  - { offset: 0x39F7B, size: 0x8, addend: 0x0, symName: __ZNSt3__114__split_bufferIPP5StateNS_9allocatorIS3_EEE9push_backB8ne180100ERKS3_, symObjAddr: 0x55E4, symBinAddr: 0x100009F78, symSize: 0x258 }
  - { offset: 0x39FF4, size: 0x8, addend: 0x0, symName: __ZNKSt3__114__split_bufferIPP5StateNS_9allocatorIS3_EEE12__back_spareB8ne180100Ev, symObjAddr: 0x583C, symBinAddr: 0x10000A1D0, symSize: 0x40 }
  - { offset: 0x3A01A, size: 0x8, addend: 0x0, symName: __ZNSt3__114__split_bufferIPP5StateNS_9allocatorIS3_EEE9push_backEOS3_, symObjAddr: 0x587C, symBinAddr: 0x10000A210, symSize: 0x258 }
  - { offset: 0x3A093, size: 0x8, addend: 0x0, symName: __ZNSt3__116allocator_traitsINS_9allocatorIP5StateEEE8allocateB8ne180100ERS4_m, symObjAddr: 0x5AD4, symBinAddr: 0x10000A468, symSize: 0x2C }
  - { offset: 0x3A0C6, size: 0x8, addend: 0x0, symName: __ZNSt3__114__split_bufferIPP5StateNS_9allocatorIS3_EEE10push_frontEOS3_, symObjAddr: 0x5B00, symBinAddr: 0x10000A494, symSize: 0x254 }
  - { offset: 0x3A13F, size: 0x8, addend: 0x0, symName: __ZNKSt3__15dequeIP5StateNS_9allocatorIS2_EEE22__annotate_whole_blockB8ne180100EmNS5_22__asan_annotation_typeE, symObjAddr: 0x5D54, symBinAddr: 0x10000A6E8, symSize: 0x18 }
  - { offset: 0x3A183, size: 0x8, addend: 0x0, symName: __ZNSt3__114__split_bufferIPP5StateRNS_9allocatorIS3_EEEC1EmmS6_, symObjAddr: 0x5D98, symBinAddr: 0x10000A72C, symSize: 0x44 }
  - { offset: 0x3A1DC, size: 0x8, addend: 0x0, symName: __ZNSt3__122__allocator_destructorINS_9allocatorIP5StateEEEC1B8ne180100ERS4_m, symObjAddr: 0x5DDC, symBinAddr: 0x10000A770, symSize: 0x3C }
  - { offset: 0x3A29F, size: 0x8, addend: 0x0, symName: __ZNSt3__110unique_ptrIPP5StateNS_22__allocator_destructorINS_9allocatorIS2_EEEEEC1B8ne180100ILb1EvEES3_NS_16__dependent_typeINS_27__unique_ptr_deleter_sfinaeIS7_EEXT_EE20__good_rval_ref_typeE, symObjAddr: 0x5E18, symBinAddr: 0x10000A7AC, symSize: 0x3C }
  - { offset: 0x3A2F0, size: 0x8, addend: 0x0, symName: __ZNSt3__114__split_bufferIPP5StateRNS_9allocatorIS3_EEE9push_backEOS3_, symObjAddr: 0x5E54, symBinAddr: 0x10000A7E8, symSize: 0x258 }
  - { offset: 0x3A367, size: 0x8, addend: 0x0, symName: __ZNKSt3__110unique_ptrIPP5StateNS_22__allocator_destructorINS_9allocatorIS2_EEEEE3getB8ne180100Ev, symObjAddr: 0x60AC, symBinAddr: 0x10000AA40, symSize: 0x28 }
  - { offset: 0x3A38D, size: 0x8, addend: 0x0, symName: __ZNSt3__110unique_ptrIPP5StateNS_22__allocator_destructorINS_9allocatorIS2_EEEEE7releaseB8ne180100Ev, symObjAddr: 0x60D4, symBinAddr: 0x10000AA68, symSize: 0x44 }
  - { offset: 0x3A3C2, size: 0x8, addend: 0x0, symName: __ZNSt3__114__split_bufferIPP5StateRNS_9allocatorIS3_EEE10push_frontERKS3_, symObjAddr: 0x6118, symBinAddr: 0x10000AAAC, symSize: 0x254 }
  - { offset: 0x3A439, size: 0x8, addend: 0x0, symName: __ZNSt3__114__split_bufferIPP5StateNS_9allocatorIS3_EEE9__end_capB8ne180100Ev, symObjAddr: 0x63A8, symBinAddr: 0x10000AD3C, symSize: 0x28 }
  - { offset: 0x3A45F, size: 0x8, addend: 0x0, symName: __ZNSt3__114__split_bufferIPP5StateRNS_9allocatorIS3_EEE9__end_capB8ne180100Ev, symObjAddr: 0x63D0, symBinAddr: 0x10000AD64, symSize: 0x28 }
  - { offset: 0x3A485, size: 0x8, addend: 0x0, symName: __ZNSt3__110unique_ptrIPP5StateNS_22__allocator_destructorINS_9allocatorIS2_EEEEED1B8ne180100Ev, symObjAddr: 0x63F8, symBinAddr: 0x10000AD8C, symSize: 0x2C }
  - { offset: 0x3A4AF, size: 0x8, addend: 0x0, symName: __ZNSt3__114__split_bufferIPP5StateRNS_9allocatorIS3_EEED1Ev, symObjAddr: 0x6424, symBinAddr: 0x10000ADB8, symSize: 0x2C }
  - { offset: 0x3A4D9, size: 0x8, addend: 0x0, symName: __ZNSt3__114__split_bufferIPP5StateRNS_9allocatorIS3_EEE18__construct_at_endINS_13move_iteratorIPS3_EETnNS_9enable_ifIXsr31__has_forward_iterator_categoryIT_EE5valueEiE4typeELi0EEEvSD_SD_, symObjAddr: 0x6490, symBinAddr: 0x10000AE24, symSize: 0x60 }
  - { offset: 0x3A52A, size: 0x8, addend: 0x0, symName: __ZNSt3__113move_iteratorIPPP5StateEC1B8ne180100ES4_, symObjAddr: 0x64F0, symBinAddr: 0x10000AE84, symSize: 0x34 }
  - { offset: 0x3A562, size: 0x8, addend: 0x0, symName: __ZNSt3__116allocator_traitsINS_9allocatorIPP5StateEEE9constructB8ne180100IS4_JRKS4_EvEEvRS5_PT_DpOT0_, symObjAddr: 0x6524, symBinAddr: 0x10000AEB8, symSize: 0x34 }
  - { offset: 0x3A5DE, size: 0x8, addend: 0x0, symName: __ZNKSt3__114__move_trivialclB8ne180100IPP5StateS4_TnNS_9enable_ifIXsr38__can_lower_move_assignment_to_memmoveIT_T0_EE5valueEiE4typeELi0EEENS_4pairIPS6_PS7_EESB_SB_SC_, symObjAddr: 0x66F4, symBinAddr: 0x10000B088, symSize: 0x48 }
  - { offset: 0x3A64B, size: 0x8, addend: 0x0, symName: __ZNSt3__14pairIPPP5StateS4_EC1B8ne180100IRS4_S4_TnNS_9enable_ifIXclsr10_CheckArgsE17__enable_implicitIT_T0_EEEiE4typeELi0EEEOS9_OSA_, symObjAddr: 0x6918, symBinAddr: 0x10000B2AC, symSize: 0x3C }
  - { offset: 0x3A6A9, size: 0x8, addend: 0x0, symName: __ZNSt3__14pairIPPP5StateS4_EC2B8ne180100IRS4_S4_TnNS_9enable_ifIXclsr10_CheckArgsE17__enable_implicitIT_T0_EEEiE4typeELi0EEEOS9_OSA_, symObjAddr: 0x6954, symBinAddr: 0x10000B2E8, symSize: 0x34 }
  - { offset: 0x3A707, size: 0x8, addend: 0x0, symName: __ZNSt3__118__unwrap_iter_implIPPP5StateLb1EE8__unwrapB8ne180100ES4_, symObjAddr: 0x6988, symBinAddr: 0x10000B31C, symSize: 0x24 }
  - { offset: 0x3A72A, size: 0x8, addend: 0x0, symName: __ZNSt3__14pairIPPP5StateS4_EC1B8ne180100IS4_S4_TnNS_9enable_ifIXclsr10_CheckArgsE17__enable_implicitIT_T0_EEEiE4typeELi0EEEOS8_OS9_, symObjAddr: 0x69AC, symBinAddr: 0x10000B340, symSize: 0x3C }
  - { offset: 0x3A788, size: 0x8, addend: 0x0, symName: __ZNSt3__14pairIPPP5StateS4_EC2B8ne180100IS4_S4_TnNS_9enable_ifIXclsr10_CheckArgsE17__enable_implicitIT_T0_EEEiE4typeELi0EEEOS8_OS9_, symObjAddr: 0x69E8, symBinAddr: 0x10000B37C, symSize: 0x34 }
  - { offset: 0x3A7E6, size: 0x8, addend: 0x0, symName: __ZNSt3__118__unwrap_iter_implIPPP5StateLb1EE8__rewrapB8ne180100ES4_S4_, symObjAddr: 0x6A1C, symBinAddr: 0x10000B3B0, symSize: 0x50 }
  - { offset: 0x3A817, size: 0x8, addend: 0x0, symName: __ZNSt3__114__split_bufferIPP5StateRNS_9allocatorIS3_EEE28__construct_at_end_with_sizeINS_13move_iteratorIPS3_EEEEvT_m, symObjAddr: 0x6A6C, symBinAddr: 0x10000B400, symSize: 0xD8 }
  - { offset: 0x3A87B, size: 0x8, addend: 0x0, symName: __ZNSt3__114__split_bufferIPP5StateRNS_9allocatorIS3_EEE21_ConstructTransactionC1B8ne180100EPPS3_m, symObjAddr: 0x6B80, symBinAddr: 0x10000B514, symSize: 0x3C }
  - { offset: 0x3A8C1, size: 0x8, addend: 0x0, symName: __ZNSt3__116allocator_traitsINS_9allocatorIPP5StateEEE9constructB8ne180100IS4_JS4_EvEEvRS5_PT_DpOT0_, symObjAddr: 0x6BBC, symBinAddr: 0x10000B550, symSize: 0x34 }
  - { offset: 0x3A91A, size: 0x8, addend: 0x0, symName: __ZNSt3__114__split_bufferIPP5StateRNS_9allocatorIS3_EEE7__allocB8ne180100Ev, symObjAddr: 0x6BF0, symBinAddr: 0x10000B584, symSize: 0x28 }
  - { offset: 0x3A940, size: 0x8, addend: 0x0, symName: __ZNKSt3__113move_iteratorIPPP5StateEdeB8ne180100Ev, symObjAddr: 0x6C18, symBinAddr: 0x10000B5AC, symSize: 0x18 }
  - { offset: 0x3A966, size: 0x8, addend: 0x0, symName: __ZNSt3__113move_iteratorIPPP5StateEppB8ne180100Ev, symObjAddr: 0x6C30, symBinAddr: 0x10000B5C4, symSize: 0x20 }
  - { offset: 0x3A98C, size: 0x8, addend: 0x0, symName: __ZNSt3__114__split_bufferIPP5StateRNS_9allocatorIS3_EEE21_ConstructTransactionD1B8ne180100Ev, symObjAddr: 0x6C50, symBinAddr: 0x10000B5E4, symSize: 0x2C }
  - { offset: 0x3A9B6, size: 0x8, addend: 0x0, symName: __ZNSt3__114__split_bufferIPP5StateRNS_9allocatorIS3_EEE21_ConstructTransactionC2B8ne180100EPPS3_m, symObjAddr: 0x6C7C, symBinAddr: 0x10000B610, symSize: 0x44 }
  - { offset: 0x3A9FC, size: 0x8, addend: 0x0, symName: __ZNSt3__19allocatorIPP5StateE9constructB8ne180100IS3_JS3_EEEvPT_DpOT0_, symObjAddr: 0x6CC0, symBinAddr: 0x10000B654, symSize: 0x28 }
  - { offset: 0x3AA54, size: 0x8, addend: 0x0, symName: __ZNSt3__117__compressed_pairIPPP5StateRNS_9allocatorIS3_EEE6secondB8ne180100Ev, symObjAddr: 0x6CE8, symBinAddr: 0x10000B67C, symSize: 0x28 }
  - { offset: 0x3AA7A, size: 0x8, addend: 0x0, symName: __ZNSt3__122__compressed_pair_elemIRNS_9allocatorIPP5StateEELi1ELb0EE5__getB8ne180100Ev, symObjAddr: 0x6D10, symBinAddr: 0x10000B6A4, symSize: 0x18 }
  - { offset: 0x3AAA0, size: 0x8, addend: 0x0, symName: __ZNSt3__114__split_bufferIPP5StateRNS_9allocatorIS3_EEE21_ConstructTransactionD2B8ne180100Ev, symObjAddr: 0x6D28, symBinAddr: 0x10000B6BC, symSize: 0x20 }
  - { offset: 0x3AACA, size: 0x8, addend: 0x0, symName: __ZNKSt3__113move_iteratorIPPP5StateE4baseB8ne180100Ev, symObjAddr: 0x6DC0, symBinAddr: 0x10000B754, symSize: 0x18 }
  - { offset: 0x3AAF0, size: 0x8, addend: 0x0, symName: __ZNSt3__113move_iteratorIPPP5StateEC2B8ne180100ES4_, symObjAddr: 0x6DD8, symBinAddr: 0x10000B76C, symSize: 0x20 }
  - { offset: 0x3AB28, size: 0x8, addend: 0x0, symName: __ZNSt3__19allocatorIPP5StateE9constructB8ne180100IS3_JRKS3_EEEvPT_DpOT0_, symObjAddr: 0x6DF8, symBinAddr: 0x10000B78C, symSize: 0x28 }
  - { offset: 0x3AB80, size: 0x8, addend: 0x0, symName: __ZNSt3__19allocatorIP5StateE8allocateB8ne180100Em, symObjAddr: 0x6E20, symBinAddr: 0x10000B7B4, symSize: 0x54 }
  - { offset: 0x3ABBE, size: 0x8, addend: 0x0, symName: __ZNSt3__116allocator_traitsINS_9allocatorIP5StateEEE8max_sizeB8ne180100IS4_vEEmRKS4_, symObjAddr: 0x6E74, symBinAddr: 0x10000B808, symSize: 0x24 }
  - { offset: 0x3ABEC, size: 0x8, addend: 0x0, symName: __ZNKSt3__19allocatorIP5StateE8max_sizeB8ne180100Ev, symObjAddr: 0x6E98, symBinAddr: 0x10000B82C, symSize: 0x14 }
  - { offset: 0x3AC1C, size: 0x8, addend: 0x0, symName: __ZNKSt3__123__move_backward_trivialclB8ne180100IPP5StateS4_TnNS_9enable_ifIXsr38__can_lower_move_assignment_to_memmoveIT_T0_EE5valueEiE4typeELi0EEENS_4pairIPS6_PS7_EESB_SB_SC_, symObjAddr: 0x7028, symBinAddr: 0x10000B9BC, symSize: 0x48 }
  - { offset: 0x3AC84, size: 0x8, addend: 0x0, symName: __ZNSt3__14pairIPPP5StateS4_EC1B8ne180100IRS4_S7_TnNS_9enable_ifIXclsr10_CheckArgsE17__enable_implicitIT_T0_EEEiE4typeELi0EEEOS9_OSA_, symObjAddr: 0x7138, symBinAddr: 0x10000BACC, symSize: 0x3C }
  - { offset: 0x3ACE2, size: 0x8, addend: 0x0, symName: __ZNSt3__14pairIPPP5StateS4_EC2B8ne180100IRS4_S7_TnNS_9enable_ifIXclsr10_CheckArgsE17__enable_implicitIT_T0_EEEiE4typeELi0EEEOS9_OSA_, symObjAddr: 0x7174, symBinAddr: 0x10000BB08, symSize: 0x34 }
  - { offset: 0x3AD40, size: 0x8, addend: 0x0, symName: __ZNSt3__114__split_bufferIPP5StateRNS_9allocatorIS3_EEEC2EmmS6_, symObjAddr: 0x71FC, symBinAddr: 0x10000BB90, symSize: 0xCC }
  - { offset: 0x3ADB1, size: 0x8, addend: 0x0, symName: __ZNSt3__117__compressed_pairIPPP5StateRNS_9allocatorIS3_EEEC1B8ne180100IDnS7_EEOT_OT0_, symObjAddr: 0x72C8, symBinAddr: 0x10000BC5C, symSize: 0x3C }
  - { offset: 0x3AE09, size: 0x8, addend: 0x0, symName: __ZNSt3__117__compressed_pairIPPP5StateRNS_9allocatorIS3_EEEC2B8ne180100IDnS7_EEOT_OT0_, symObjAddr: 0x7344, symBinAddr: 0x10000BCD8, symSize: 0x48 }
  - { offset: 0x3AE61, size: 0x8, addend: 0x0, symName: __ZNSt3__122__compressed_pair_elemIRNS_9allocatorIPP5StateEELi1ELb0EEC2B8ne180100IS6_vEEOT_, symObjAddr: 0x738C, symBinAddr: 0x10000BD20, symSize: 0x20 }
  - { offset: 0x3AEA3, size: 0x8, addend: 0x0, symName: __ZNSt3__19allocatorIPP5StateE8allocateB8ne180100Em, symObjAddr: 0x73AC, symBinAddr: 0x10000BD40, symSize: 0x54 }
  - { offset: 0x3AEE1, size: 0x8, addend: 0x0, symName: __ZNSt3__116allocator_traitsINS_9allocatorIPP5StateEEE8max_sizeB8ne180100IS5_vEEmRKS5_, symObjAddr: 0x7400, symBinAddr: 0x10000BD94, symSize: 0x24 }
  - { offset: 0x3AF0F, size: 0x8, addend: 0x0, symName: __ZNKSt3__19allocatorIPP5StateE8max_sizeB8ne180100Ev, symObjAddr: 0x7424, symBinAddr: 0x10000BDB8, symSize: 0x14 }
  - { offset: 0x3AF35, size: 0x8, addend: 0x0, symName: __ZNSt3__122__allocator_destructorINS_9allocatorIP5StateEEEC2B8ne180100ERS4_m, symObjAddr: 0x7438, symBinAddr: 0x10000BDCC, symSize: 0x2C }
  - { offset: 0x3AF7B, size: 0x8, addend: 0x0, symName: __ZNSt3__110unique_ptrIPP5StateNS_22__allocator_destructorINS_9allocatorIS2_EEEEEC2B8ne180100ILb1EvEES3_NS_16__dependent_typeINS_27__unique_ptr_deleter_sfinaeIS7_EEXT_EE20__good_rval_ref_typeE, symObjAddr: 0x7464, symBinAddr: 0x10000BDF8, symSize: 0x48 }
  - { offset: 0x3AFCC, size: 0x8, addend: 0x0, symName: __ZNSt3__117__compressed_pairIPP5StateNS_22__allocator_destructorINS_9allocatorIS2_EEEEEC1B8ne180100IRS3_S7_EEOT_OT0_, symObjAddr: 0x74AC, symBinAddr: 0x10000BE40, symSize: 0x3C }
  - { offset: 0x3B024, size: 0x8, addend: 0x0, symName: __ZNSt3__117__compressed_pairIPP5StateNS_22__allocator_destructorINS_9allocatorIS2_EEEEEC2B8ne180100IRS3_S7_EEOT_OT0_, symObjAddr: 0x74E8, symBinAddr: 0x10000BE7C, symSize: 0x48 }
  - { offset: 0x3B07C, size: 0x8, addend: 0x0, symName: __ZNSt3__122__compressed_pair_elemIPP5StateLi0ELb0EEC2B8ne180100IRS3_vEEOT_, symObjAddr: 0x7530, symBinAddr: 0x10000BEC4, symSize: 0x24 }
  - { offset: 0x3B0BE, size: 0x8, addend: 0x0, symName: __ZNSt3__122__compressed_pair_elemINS_22__allocator_destructorINS_9allocatorIP5StateEEEELi1ELb0EEC2B8ne180100IS6_vEEOT_, symObjAddr: 0x7554, symBinAddr: 0x10000BEE8, symSize: 0x24 }
  - { offset: 0x3B100, size: 0x8, addend: 0x0, symName: __ZNKSt3__117__compressed_pairIPP5StateNS_22__allocator_destructorINS_9allocatorIS2_EEEEE5firstB8ne180100Ev, symObjAddr: 0x7578, symBinAddr: 0x10000BF0C, symSize: 0x24 }
  - { offset: 0x3B126, size: 0x8, addend: 0x0, symName: __ZNKSt3__122__compressed_pair_elemIPP5StateLi0ELb0EE5__getB8ne180100Ev, symObjAddr: 0x759C, symBinAddr: 0x10000BF30, symSize: 0x14 }
  - { offset: 0x3B14C, size: 0x8, addend: 0x0, symName: __ZNSt3__117__compressed_pairIPP5StateNS_22__allocator_destructorINS_9allocatorIS2_EEEEE5firstB8ne180100Ev, symObjAddr: 0x75B0, symBinAddr: 0x10000BF44, symSize: 0x24 }
  - { offset: 0x3B172, size: 0x8, addend: 0x0, symName: __ZNSt3__122__compressed_pair_elemIPP5StateLi0ELb0EE5__getB8ne180100Ev, symObjAddr: 0x75D4, symBinAddr: 0x10000BF68, symSize: 0x14 }
  - { offset: 0x3B198, size: 0x8, addend: 0x0, symName: __ZNSt3__117__compressed_pairIPPP5StateNS_9allocatorIS3_EEE5firstB8ne180100Ev, symObjAddr: 0x75E8, symBinAddr: 0x10000BF7C, symSize: 0x24 }
  - { offset: 0x3B1BE, size: 0x8, addend: 0x0, symName: __ZNSt3__122__compressed_pair_elemIPPP5StateLi0ELb0EE5__getB8ne180100Ev, symObjAddr: 0x760C, symBinAddr: 0x10000BFA0, symSize: 0x14 }
  - { offset: 0x3B1E4, size: 0x8, addend: 0x0, symName: __ZNSt3__117__compressed_pairIPPP5StateRNS_9allocatorIS3_EEE5firstB8ne180100Ev, symObjAddr: 0x7620, symBinAddr: 0x10000BFB4, symSize: 0x24 }
  - { offset: 0x3B20A, size: 0x8, addend: 0x0, symName: __ZNSt3__110unique_ptrIPP5StateNS_22__allocator_destructorINS_9allocatorIS2_EEEEED2B8ne180100Ev, symObjAddr: 0x7644, symBinAddr: 0x10000BFD8, symSize: 0x30 }
  - { offset: 0x3B234, size: 0x8, addend: 0x0, symName: __ZNSt3__110unique_ptrIPP5StateNS_22__allocator_destructorINS_9allocatorIS2_EEEEE5resetB8ne180100ES3_, symObjAddr: 0x7674, symBinAddr: 0x10000C008, symSize: 0x70 }
  - { offset: 0x3B278, size: 0x8, addend: 0x0, symName: __ZNSt3__117__compressed_pairIPP5StateNS_22__allocator_destructorINS_9allocatorIS2_EEEEE6secondB8ne180100Ev, symObjAddr: 0x76E4, symBinAddr: 0x10000C078, symSize: 0x28 }
  - { offset: 0x3B29E, size: 0x8, addend: 0x0, symName: __ZNSt3__122__allocator_destructorINS_9allocatorIP5StateEEEclB8ne180100EPS3_, symObjAddr: 0x770C, symBinAddr: 0x10000C0A0, symSize: 0x34 }
  - { offset: 0x3B2D2, size: 0x8, addend: 0x0, symName: __ZNSt3__122__compressed_pair_elemINS_22__allocator_destructorINS_9allocatorIP5StateEEEELi1ELb0EE5__getB8ne180100Ev, symObjAddr: 0x7740, symBinAddr: 0x10000C0D4, symSize: 0x14 }
  - { offset: 0x3B2F8, size: 0x8, addend: 0x0, symName: __ZNSt3__114__split_bufferIPP5StateRNS_9allocatorIS3_EEED2Ev, symObjAddr: 0x7754, symBinAddr: 0x10000C0E8, symSize: 0x84 }
  - { offset: 0x3B322, size: 0x8, addend: 0x0, symName: __ZNSt3__114__split_bufferIPP5StateRNS_9allocatorIS3_EEE5clearB8ne180100Ev, symObjAddr: 0x77D8, symBinAddr: 0x10000C16C, symSize: 0x28 }
  - { offset: 0x3B348, size: 0x8, addend: 0x0, symName: __ZNKSt3__114__split_bufferIPP5StateRNS_9allocatorIS3_EEE8capacityB8ne180100Ev, symObjAddr: 0x7800, symBinAddr: 0x10000C194, symSize: 0x40 }
  - { offset: 0x3B36E, size: 0x8, addend: 0x0, symName: __ZNSt3__114__split_bufferIPP5StateRNS_9allocatorIS3_EEE17__destruct_at_endB8ne180100EPS3_, symObjAddr: 0x7840, symBinAddr: 0x10000C1D4, symSize: 0x2C }
  - { offset: 0x3B3A2, size: 0x8, addend: 0x0, symName: __ZNSt3__114__split_bufferIPP5StateRNS_9allocatorIS3_EEE17__destruct_at_endB8ne180100EPS3_NS_17integral_constantIbLb0EEE, symObjAddr: 0x786C, symBinAddr: 0x10000C200, symSize: 0x7C }
  - { offset: 0x3B3E1, size: 0x8, addend: 0x0, symName: __ZNKSt3__114__split_bufferIPP5StateRNS_9allocatorIS3_EEE9__end_capB8ne180100Ev, symObjAddr: 0x78E8, symBinAddr: 0x10000C27C, symSize: 0x28 }
  - { offset: 0x3B407, size: 0x8, addend: 0x0, symName: __ZNKSt3__117__compressed_pairIPPP5StateRNS_9allocatorIS3_EEE5firstB8ne180100Ev, symObjAddr: 0x7910, symBinAddr: 0x10000C2A4, symSize: 0x24 }
  - { offset: 0x3B42D, size: 0x8, addend: 0x0, symName: __ZNSt3__19allocatorIP5StateE9constructB8ne180100IS2_JS2_EEEvPT_DpOT0_, symObjAddr: 0x7934, symBinAddr: 0x10000C2C8, symSize: 0x28 }
  - { offset: 0x3B485, size: 0x8, addend: 0x0, symName: __ZNKSt3__15dequeIP5StateNS_9allocatorIS2_EEE5emptyB8ne180100Ev, symObjAddr: 0x795C, symBinAddr: 0x10000C2F0, symSize: 0x2C }
  - { offset: 0x3B4AB, size: 0x8, addend: 0x0, symName: __ZNSt3__15dequeIP5StateNS_9allocatorIS2_EEE4backEv, symObjAddr: 0x7988, symBinAddr: 0x10000C31C, symSize: 0x68 }
  - { offset: 0x3B4E2, size: 0x8, addend: 0x0, symName: __ZNSt3__15dequeIP5StateNS_9allocatorIS2_EEE8pop_backEv, symObjAddr: 0x79F0, symBinAddr: 0x10000C384, symSize: 0xE0 }
  - { offset: 0x3B546, size: 0x8, addend: 0x0, symName: __ZNKSt3__15dequeIP5StateNS_9allocatorIS2_EEE22__annotate_shrink_backB8ne180100Emm, symObjAddr: 0x7AE4, symBinAddr: 0x10000C478, symSize: 0x18 }
  - { offset: 0x3B58A, size: 0x8, addend: 0x0, symName: __ZNSt3__15dequeIP5StateNS_9allocatorIS2_EEE25__maybe_remove_back_spareB8ne180100Eb, symObjAddr: 0x7AFC, symBinAddr: 0x10000C490, symSize: 0xD4 }
  - { offset: 0x3B5BF, size: 0x8, addend: 0x0, symName: __ZNKSt3__15dequeIP5StateNS_9allocatorIS2_EEE19__back_spare_blocksB8ne180100Ev, symObjAddr: 0x7BD0, symBinAddr: 0x10000C564, symSize: 0x2C }
  - { offset: 0x3B5E5, size: 0x8, addend: 0x0, symName: __ZNSt3__114__split_bufferIPP5StateNS_9allocatorIS3_EEE4backB8ne180100Ev, symObjAddr: 0x7BFC, symBinAddr: 0x10000C590, symSize: 0x1C }
  - { offset: 0x3B60B, size: 0x8, addend: 0x0, symName: __ZNSt3__114__split_bufferIPP5StateNS_9allocatorIS3_EEE8pop_backB8ne180100Ev, symObjAddr: 0x7C18, symBinAddr: 0x10000C5AC, symSize: 0x2C }
  - { offset: 0x4EF68, size: 0x8, addend: 0x0, symName: __ZNSt3__124__put_character_sequenceB8ne180100IcNS_11char_traitsIcEEEERNS_13basic_ostreamIT_T0_EES7_PKS4_m, symObjAddr: 0x3898, symBinAddr: 0x10000E580, symSize: 0x1E8 }
  - { offset: 0x4FDEA, size: 0x8, addend: 0x0, symName: __ZNSt3__1lsB8ne180100INS_11char_traitsIcEEEERNS_13basic_ostreamIcT_EES6_PKc, symObjAddr: 0x40C, symBinAddr: 0x10000C9B0, symSize: 0x48 }
  - { offset: 0x4FE30, size: 0x8, addend: 0x0, symName: __ZNSt3__14endlB8ne180100IcNS_11char_traitsIcEEEERNS_13basic_ostreamIT_T0_EES7_, symObjAddr: 0x480, symBinAddr: 0x10000CA24, symSize: 0x58 }
  - { offset: 0x50984, size: 0x8, addend: 0x0, symName: __ZNSt3__1lsB8ne180100IcNS_11char_traitsIcEENS_9allocatorIcEEEERNS_13basic_ostreamIT_T0_EES9_RKNS_12basic_stringIS6_S7_T1_EE, symObjAddr: 0xCB4, symBinAddr: 0x10000CDBC, symSize: 0x4C }
  - { offset: 0x509E7, size: 0x8, addend: 0x0, symName: __ZNSt3__116forward_as_tupleB8ne180100IJNS_12basic_stringIcNS_11char_traitsIcEENS_9allocatorIcEEEEEEENS_5tupleIJDpOT_EEESA_, symObjAddr: 0x192C, symBinAddr: 0x10000D67C, symSize: 0x2C }
  - { offset: 0x50A22, size: 0x8, addend: 0x0, symName: __ZNSt3__17launderB8ne180100IKNS_4pairIKNS_12basic_stringIcNS_11char_traitsIcEENS_9allocatorIcEEEEPN2sf7TextureEEEEEPT_SF_, symObjAddr: 0x25B0, symBinAddr: 0x10000DC38, symSize: 0x24 }
  - { offset: 0x50A59, size: 0x8, addend: 0x0, symName: __ZNSt3__19__launderB8ne180100IKNS_4pairIKNS_12basic_stringIcNS_11char_traitsIcEENS_9allocatorIcEEEEPN2sf7TextureEEEEEPT_SF_, symObjAddr: 0x25D4, symBinAddr: 0x10000DC5C, symSize: 0x14 }
  - { offset: 0x50AAE, size: 0x8, addend: 0x0, symName: __ZNSt3__13getB8ne180100ILm0EJONS_12basic_stringIcNS_11char_traitsIcEENS_9allocatorIcEEEEEEERNS_13tuple_elementIXT_ENS_5tupleIJDpT0_EEEE4typeERSC_, symObjAddr: 0x2BB8, symBinAddr: 0x10000E084, symSize: 0x24 }
  - { offset: 0x50B0A, size: 0x8, addend: 0x0, symName: __ZNSt3__116__pad_and_outputB8ne180100IcNS_11char_traitsIcEEEENS_19ostreambuf_iteratorIT_T0_EES6_PKS4_S8_S8_RNS_8ios_baseES4_, symObjAddr: 0x3A9C, symBinAddr: 0x10000E784, symSize: 0x214 }
  - { offset: 0x50BDB, size: 0x8, addend: 0x0, symName: __ZNSt3__112__to_addressB8ne180100IcEEPT_S2_, symObjAddr: 0x3EDC, symBinAddr: 0x10000EB54, symSize: 0x14 }
  - { offset: 0x52F4A, size: 0x8, addend: 0x0, symName: __ZN9GameState15updateKeyBindesERKf, symObjAddr: 0x102C, symBinAddr: 0x10000CFC0, symSize: 0x46C }
  - { offset: 0x52F70, size: 0x8, addend: 0x0, symName: __ZZN9GameState15updateKeyBindesERKfE5timer, symObjAddr: 0xAA318, symBinAddr: 0x100024000, symSize: 0x0 }
  - { offset: 0x53332, size: 0x8, addend: 0x0, symName: __ZN9GameState12initTexturesEv, symObjAddr: 0x0, symBinAddr: 0x10000C5D8, symSize: 0x32C }
  - { offset: 0x5335A, size: 0x8, addend: 0x0, symName: __ZNSt3__13mapINS_12basic_stringIcNS_11char_traitsIcEENS_9allocatorIcEEEEPN2sf7TextureENS_4lessIS6_EENS4_INS_4pairIKS6_S9_EEEEEixEOS6_, symObjAddr: 0x32C, symBinAddr: 0x10000C904, symSize: 0x80 }
  - { offset: 0x53396, size: 0x8, addend: 0x0, symName: __ZN2sf4RectIiEC1Ev, symObjAddr: 0x3E0, symBinAddr: 0x10000C984, symSize: 0x2C }
  - { offset: 0x533C2, size: 0x8, addend: 0x0, symName: __ZNSt3__113basic_ostreamIcNS_11char_traitsIcEEElsB8ne180100EPFRS3_S4_E, symObjAddr: 0x454, symBinAddr: 0x10000C9F8, symSize: 0x2C }
  - { offset: 0x533F6, size: 0x8, addend: 0x0, symName: __ZN9GameState13initVariablesEv, symObjAddr: 0x4D8, symBinAddr: 0x10000CA7C, symSize: 0x90 }
  - { offset: 0x5341E, size: 0x8, addend: 0x0, symName: __ZN2sf7Vector2IfEC1Eff, symObjAddr: 0x568, symBinAddr: 0x10000CB0C, symSize: 0x3C }
  - { offset: 0x53466, size: 0x8, addend: 0x0, symName: __ZN9GameState13initKeyBindesEv, symObjAddr: 0x5A4, symBinAddr: 0x10000CB48, symSize: 0x274 }
  - { offset: 0x53710, size: 0x8, addend: 0x0, symName: __ZN9GameStateC2EPN2sf12RenderWindowEPNSt3__13mapINS3_12basic_stringIcNS3_11char_traitsIcEENS3_9allocatorIcEEEEiNS3_4lessISA_EENS8_INS3_4pairIKSA_iEEEEEEPNS3_5stackIP5StateNS3_5dequeISL_NS8_ISL_EEEEEE, symObjAddr: 0xE74, symBinAddr: 0x10000CE08, symSize: 0xAC }
  - { offset: 0x53766, size: 0x8, addend: 0x0, symName: __ZN9GameStateC1EPN2sf12RenderWindowEPNSt3__13mapINS3_12basic_stringIcNS3_11char_traitsIcEENS3_9allocatorIcEEEEiNS3_4lessISA_EENS8_INS3_4pairIKSA_iEEEEEEPNS3_5stackIP5StateNS3_5dequeISL_NS8_ISL_EEEEEE, symObjAddr: 0xF20, symBinAddr: 0x10000CEB4, symSize: 0x44 }
  - { offset: 0x537BC, size: 0x8, addend: 0x0, symName: __ZN9GameStateD2Ev, symObjAddr: 0xF64, symBinAddr: 0x10000CEF8, symSize: 0x6C }
  - { offset: 0x537E8, size: 0x8, addend: 0x0, symName: __ZN9GameStateD1Ev, symObjAddr: 0xFD0, symBinAddr: 0x10000CF64, symSize: 0x2C }
  - { offset: 0x53814, size: 0x8, addend: 0x0, symName: __ZN9GameStateD0Ev, symObjAddr: 0xFFC, symBinAddr: 0x10000CF90, symSize: 0x30 }
  - { offset: 0x53840, size: 0x8, addend: 0x0, symName: __ZN6Player10isShootingEv, symObjAddr: 0x1498, symBinAddr: 0x10000D42C, symSize: 0x18 }
  - { offset: 0x53866, size: 0x8, addend: 0x0, symName: __ZN6Player11getPositionEv, symObjAddr: 0x14B0, symBinAddr: 0x10000D444, symSize: 0x2C }
  - { offset: 0x5388C, size: 0x8, addend: 0x0, symName: __ZN9GameState11updateStateERKf, symObjAddr: 0x14DC, symBinAddr: 0x10000D470, symSize: 0x74 }
  - { offset: 0x538C2, size: 0x8, addend: 0x0, symName: __ZN9GameState9drawStateEPN2sf12RenderTargetE, symObjAddr: 0x1550, symBinAddr: 0x10000D4E4, symSize: 0x60 }
  - { offset: 0x538F8, size: 0x8, addend: 0x0, symName: __ZN9GameState8endStateEv, symObjAddr: 0x15B0, symBinAddr: 0x10000D544, symSize: 0x1C }
  - { offset: 0x53920, size: 0x8, addend: 0x0, symName: __ZN2sf4RectIiEC2Ev, symObjAddr: 0x1658, symBinAddr: 0x10000D560, symSize: 0x24 }
  - { offset: 0x5395B, size: 0x8, addend: 0x0, symName: __ZNSt3__16__treeINS_12__value_typeINS_12basic_stringIcNS_11char_traitsIcEENS_9allocatorIcEEEEPN2sf7TextureEEENS_19__map_value_compareIS7_SB_NS_4lessIS7_EELb1EEENS5_ISB_EEE25__emplace_unique_key_argsIS7_JRKNS_21piecewise_construct_tENS_5tupleIJOS7_EEENSM_IJEEEEEENS_4pairINS_15__tree_iteratorISB_PNS_11__tree_nodeISB_PvEElEEbEERKT_DpOT0_, symObjAddr: 0x1834, symBinAddr: 0x10000D584, symSize: 0xF8 }
  - { offset: 0x53A34, size: 0x8, addend: 0x0, symName: __ZNSt3__16__treeINS_12__value_typeINS_12basic_stringIcNS_11char_traitsIcEENS_9allocatorIcEEEEPN2sf7TextureEEENS_19__map_value_compareIS7_SB_NS_4lessIS7_EELb1EEENS5_ISB_EEE12__find_equalIS7_EERPNS_16__tree_node_baseIPvEERPNS_15__tree_end_nodeISM_EERKT_, symObjAddr: 0x19AC, symBinAddr: 0x10000D6A8, symSize: 0x16C }
  - { offset: 0x53A9F, size: 0x8, addend: 0x0, symName: __ZNSt3__16__treeINS_12__value_typeINS_12basic_stringIcNS_11char_traitsIcEENS_9allocatorIcEEEEPN2sf7TextureEEENS_19__map_value_compareIS7_SB_NS_4lessIS7_EELb1EEENS5_ISB_EEE16__construct_nodeIJRKNS_21piecewise_construct_tENS_5tupleIJOS7_EEENSM_IJEEEEEENS_10unique_ptrINS_11__tree_nodeISB_PvEENS_22__tree_node_destructorINS5_IST_EEEEEEDpOT_, symObjAddr: 0x1B18, symBinAddr: 0x10000D814, symSize: 0x120 }
  - { offset: 0x53B2A, size: 0x8, addend: 0x0, symName: __ZNSt3__16__treeINS_12__value_typeINS_12basic_stringIcNS_11char_traitsIcEENS_9allocatorIcEEEEPN2sf7TextureEEENS_19__map_value_compareIS7_SB_NS_4lessIS7_EELb1EEENS5_ISB_EEE16__insert_node_atEPNS_15__tree_end_nodeIPNS_16__tree_node_baseIPvEEEERSM_SM_, symObjAddr: 0x1C38, symBinAddr: 0x10000D934, symSize: 0xC4 }
  - { offset: 0x53B7F, size: 0x8, addend: 0x0, symName: __ZNKSt3__110unique_ptrINS_11__tree_nodeINS_12__value_typeINS_12basic_stringIcNS_11char_traitsIcEENS_9allocatorIcEEEEPN2sf7TextureEEEPvEENS_22__tree_node_destructorINS6_ISE_EEEEE3getB8ne180100Ev, symObjAddr: 0x1CFC, symBinAddr: 0x10000D9F8, symSize: 0x28 }
  - { offset: 0x53BA5, size: 0x8, addend: 0x0, symName: __ZNSt3__110unique_ptrINS_11__tree_nodeINS_12__value_typeINS_12basic_stringIcNS_11char_traitsIcEENS_9allocatorIcEEEEPN2sf7TextureEEEPvEENS_22__tree_node_destructorINS6_ISE_EEEEE7releaseB8ne180100Ev, symObjAddr: 0x1D24, symBinAddr: 0x10000DA20, symSize: 0x44 }
  - { offset: 0x53BDA, size: 0x8, addend: 0x0, symName: __ZNSt3__110unique_ptrINS_11__tree_nodeINS_12__value_typeINS_12basic_stringIcNS_11char_traitsIcEENS_9allocatorIcEEEEPN2sf7TextureEEEPvEENS_22__tree_node_destructorINS6_ISE_EEEEED1B8ne180100Ev, symObjAddr: 0x1D68, symBinAddr: 0x10000DA64, symSize: 0x2C }
  - { offset: 0x53C04, size: 0x8, addend: 0x0, symName: __ZNSt3__115__tree_iteratorINS_12__value_typeINS_12basic_stringIcNS_11char_traitsIcEENS_9allocatorIcEEEEPN2sf7TextureEEEPNS_11__tree_nodeISB_PvEElEC1B8ne180100ESF_, symObjAddr: 0x1D94, symBinAddr: 0x10000DA90, symSize: 0x34 }
  - { offset: 0x53C42, size: 0x8, addend: 0x0, symName: __ZNSt3__14pairINS_15__tree_iteratorINS_12__value_typeINS_12basic_stringIcNS_11char_traitsIcEENS_9allocatorIcEEEEPN2sf7TextureEEEPNS_11__tree_nodeISC_PvEElEEbEC1B8ne180100ISH_RbTnNS_9enable_ifIXclsr10_CheckArgsE17__enable_implicitIT_T0_EEEiE4typeELi0EEEOSM_OSN_, symObjAddr: 0x1DC8, symBinAddr: 0x10000DAC4, symSize: 0x3C }
  - { offset: 0x53CA0, size: 0x8, addend: 0x0, symName: __ZNKSt3__16__treeINS_12__value_typeINS_12basic_stringIcNS_11char_traitsIcEENS_9allocatorIcEEEEPN2sf7TextureEEENS_19__map_value_compareIS7_SB_NS_4lessIS7_EELb1EEENS5_ISB_EEE10__root_ptrB8ne180100Ev, symObjAddr: 0x1E2C, symBinAddr: 0x10000DB00, symSize: 0x24 }
  - { offset: 0x53CC6, size: 0x8, addend: 0x0, symName: __ZNSt3__16__treeINS_12__value_typeINS_12basic_stringIcNS_11char_traitsIcEENS_9allocatorIcEEEEPN2sf7TextureEEENS_19__map_value_compareIS7_SB_NS_4lessIS7_EELb1EEENS5_ISB_EEE10value_compB8ne180100Ev, symObjAddr: 0x1E50, symBinAddr: 0x10000DB24, symSize: 0x28 }
  - { offset: 0x53CEC, size: 0x8, addend: 0x0, symName: __ZNKSt3__119__map_value_compareINS_12basic_stringIcNS_11char_traitsIcEENS_9allocatorIcEEEENS_12__value_typeIS6_PN2sf7TextureEEENS_4lessIS6_EELb1EEclB8ne180100ERKS6_RKSB_, symObjAddr: 0x1E78, symBinAddr: 0x10000DB4C, symSize: 0x4C }
  - { offset: 0x53D30, size: 0x8, addend: 0x0, symName: __ZNKSt3__119__map_value_compareINS_12basic_stringIcNS_11char_traitsIcEENS_9allocatorIcEEEENS_12__value_typeIS6_PN2sf7TextureEEENS_4lessIS6_EELb1EEclB8ne180100ERKSB_RKS6_, symObjAddr: 0x1EC4, symBinAddr: 0x10000DB98, symSize: 0x44 }
  - { offset: 0x53D74, size: 0x8, addend: 0x0, symName: __ZNSt3__117__compressed_pairImNS_19__map_value_compareINS_12basic_stringIcNS_11char_traitsIcEENS_9allocatorIcEEEENS_12__value_typeIS7_PN2sf7TextureEEENS_4lessIS7_EELb1EEEE6secondB8ne180100Ev, symObjAddr: 0x1FAC, symBinAddr: 0x10000DBDC, symSize: 0x24 }
  - { offset: 0x53D9A, size: 0x8, addend: 0x0, symName: __ZNSt3__122__compressed_pair_elemINS_19__map_value_compareINS_12basic_stringIcNS_11char_traitsIcEENS_9allocatorIcEEEENS_12__value_typeIS7_PN2sf7TextureEEENS_4lessIS7_EELb1EEELi1ELb1EE5__getB8ne180100Ev, symObjAddr: 0x1FD0, symBinAddr: 0x10000DC00, symSize: 0x14 }
  - { offset: 0x53DC0, size: 0x8, addend: 0x0, symName: __ZNKSt3__112__value_typeINS_12basic_stringIcNS_11char_traitsIcEENS_9allocatorIcEEEEPN2sf7TextureEE11__get_valueB8ne180100Ev, symObjAddr: 0x2014, symBinAddr: 0x10000DC14, symSize: 0x24 }
  - { offset: 0x53DE6, size: 0x8, addend: 0x0, symName: __ZNSt3__116allocator_traitsINS_9allocatorINS_11__tree_nodeINS_12__value_typeINS_12basic_stringIcNS_11char_traitsIcEENS1_IcEEEEPN2sf7TextureEEEPvEEEEE8allocateB8ne180100ERSF_m, symObjAddr: 0x2648, symBinAddr: 0x10000DC70, symSize: 0x2C }
  - { offset: 0x53E19, size: 0x8, addend: 0x0, symName: __ZNSt3__122__tree_node_destructorINS_9allocatorINS_11__tree_nodeINS_12__value_typeINS_12basic_stringIcNS_11char_traitsIcEENS1_IcEEEEPN2sf7TextureEEEPvEEEEEC1B8ne180100ERSF_b, symObjAddr: 0x2674, symBinAddr: 0x10000DC9C, symSize: 0x40 }
  - { offset: 0x53E66, size: 0x8, addend: 0x0, symName: __ZNSt3__110unique_ptrINS_11__tree_nodeINS_12__value_typeINS_12basic_stringIcNS_11char_traitsIcEENS_9allocatorIcEEEEPN2sf7TextureEEEPvEENS_22__tree_node_destructorINS6_ISE_EEEEEC1B8ne180100ILb1EvEEPSE_NS_16__dependent_typeINS_27__unique_ptr_deleter_sfinaeISH_EEXT_EE20__good_rval_ref_typeE, symObjAddr: 0x26B4, symBinAddr: 0x10000DCDC, symSize: 0x3C }
  - { offset: 0x53EB7, size: 0x8, addend: 0x0, symName: __ZNSt3__116allocator_traitsINS_9allocatorINS_11__tree_nodeINS_12__value_typeINS_12basic_stringIcNS_11char_traitsIcEENS1_IcEEEEPN2sf7TextureEEEPvEEEEE9constructB8ne180100INS_4pairIKS8_SB_EEJRKNS_21piecewise_construct_tENS_5tupleIJOS8_EEENSO_IJEEEEvEEvRSF_PT_DpOT0_, symObjAddr: 0x26F0, symBinAddr: 0x10000DD18, symSize: 0x44 }
  - { offset: 0x53F3A, size: 0x8, addend: 0x0, symName: __ZNKSt3__110unique_ptrINS_11__tree_nodeINS_12__value_typeINS_12basic_stringIcNS_11char_traitsIcEENS_9allocatorIcEEEEPN2sf7TextureEEEPvEENS_22__tree_node_destructorINS6_ISE_EEEEEptB8ne180100Ev, symObjAddr: 0x2758, symBinAddr: 0x10000DD5C, symSize: 0x28 }
  - { offset: 0x53F60, size: 0x8, addend: 0x0, symName: __ZNSt3__110unique_ptrINS_11__tree_nodeINS_12__value_typeINS_12basic_stringIcNS_11char_traitsIcEENS_9allocatorIcEEEEPN2sf7TextureEEEPvEENS_22__tree_node_destructorINS6_ISE_EEEEE11get_deleterB8ne180100Ev, symObjAddr: 0x2780, symBinAddr: 0x10000DD84, symSize: 0x24 }
  - { offset: 0x53F86, size: 0x8, addend: 0x0, symName: __ZNSt3__19allocatorINS_11__tree_nodeINS_12__value_typeINS_12basic_stringIcNS_11char_traitsIcEENS0_IcEEEEPN2sf7TextureEEEPvEEE8allocateB8ne180100Em, symObjAddr: 0x27DC, symBinAddr: 0x10000DDA8, symSize: 0x54 }
  - { offset: 0x53FC4, size: 0x8, addend: 0x0, symName: __ZNSt3__116allocator_traitsINS_9allocatorINS_11__tree_nodeINS_12__value_typeINS_12basic_stringIcNS_11char_traitsIcEENS1_IcEEEEPN2sf7TextureEEEPvEEEEE8max_sizeB8ne180100ISF_vEEmRKSF_, symObjAddr: 0x2830, symBinAddr: 0x10000DDFC, symSize: 0x24 }
  - { offset: 0x53FF2, size: 0x8, addend: 0x0, symName: __ZNKSt3__19allocatorINS_11__tree_nodeINS_12__value_typeINS_12basic_stringIcNS_11char_traitsIcEENS0_IcEEEEPN2sf7TextureEEEPvEEE8max_sizeB8ne180100Ev, symObjAddr: 0x28E8, symBinAddr: 0x10000DE20, symSize: 0x14 }
  - { offset: 0x54018, size: 0x8, addend: 0x0, symName: __ZNSt3__122__tree_node_destructorINS_9allocatorINS_11__tree_nodeINS_12__value_typeINS_12basic_stringIcNS_11char_traitsIcEENS1_IcEEEEPN2sf7TextureEEEPvEEEEEC2B8ne180100ERSF_b, symObjAddr: 0x2968, symBinAddr: 0x10000DE34, symSize: 0x30 }
  - { offset: 0x54060, size: 0x8, addend: 0x0, symName: __ZNSt3__110unique_ptrINS_11__tree_nodeINS_12__value_typeINS_12basic_stringIcNS_11char_traitsIcEENS_9allocatorIcEEEEPN2sf7TextureEEEPvEENS_22__tree_node_destructorINS6_ISE_EEEEEC2B8ne180100ILb1EvEEPSE_NS_16__dependent_typeINS_27__unique_ptr_deleter_sfinaeISH_EEXT_EE20__good_rval_ref_typeE, symObjAddr: 0x2998, symBinAddr: 0x10000DE64, symSize: 0x48 }
  - { offset: 0x540B1, size: 0x8, addend: 0x0, symName: __ZNSt3__117__compressed_pairIPNS_11__tree_nodeINS_12__value_typeINS_12basic_stringIcNS_11char_traitsIcEENS_9allocatorIcEEEEPN2sf7TextureEEEPvEENS_22__tree_node_destructorINS6_ISE_EEEEEC1B8ne180100IRSF_SI_EEOT_OT0_, symObjAddr: 0x29E0, symBinAddr: 0x10000DEAC, symSize: 0x3C }
  - { offset: 0x54109, size: 0x8, addend: 0x0, symName: __ZNSt3__117__compressed_pairIPNS_11__tree_nodeINS_12__value_typeINS_12basic_stringIcNS_11char_traitsIcEENS_9allocatorIcEEEEPN2sf7TextureEEEPvEENS_22__tree_node_destructorINS6_ISE_EEEEEC2B8ne180100IRSF_SI_EEOT_OT0_, symObjAddr: 0x2A1C, symBinAddr: 0x10000DEE8, symSize: 0x48 }
  - { offset: 0x54161, size: 0x8, addend: 0x0, symName: __ZNSt3__122__compressed_pair_elemIPNS_11__tree_nodeINS_12__value_typeINS_12basic_stringIcNS_11char_traitsIcEENS_9allocatorIcEEEEPN2sf7TextureEEEPvEELi0ELb0EEC2B8ne180100IRSF_vEEOT_, symObjAddr: 0x2A64, symBinAddr: 0x10000DF30, symSize: 0x24 }
  - { offset: 0x541A3, size: 0x8, addend: 0x0, symName: __ZNSt3__122__compressed_pair_elemINS_22__tree_node_destructorINS_9allocatorINS_11__tree_nodeINS_12__value_typeINS_12basic_stringIcNS_11char_traitsIcEENS2_IcEEEEPN2sf7TextureEEEPvEEEEEELi1ELb0EEC2B8ne180100ISH_vEEOT_, symObjAddr: 0x2A88, symBinAddr: 0x10000DF54, symSize: 0x24 }
  - { offset: 0x541E5, size: 0x8, addend: 0x0, symName: __ZNSt3__19allocatorINS_11__tree_nodeINS_12__value_typeINS_12basic_stringIcNS_11char_traitsIcEENS0_IcEEEEPN2sf7TextureEEEPvEEE9constructB8ne180100INS_4pairIKS7_SA_EEJRKNS_21piecewise_construct_tENS_5tupleIJOS7_EEENSM_IJEEEEEEvPT_DpOT0_, symObjAddr: 0x2AAC, symBinAddr: 0x10000DF78, symSize: 0x44 }
  - { offset: 0x54265, size: 0x8, addend: 0x0, symName: __ZNSt3__14pairIKNS_12basic_stringIcNS_11char_traitsIcEENS_9allocatorIcEEEEPN2sf7TextureEEC1B8ne180100IJOS6_EJEEENS_21piecewise_construct_tENS_5tupleIJDpT_EEENSF_IJDpT0_EEE, symObjAddr: 0x2AF0, symBinAddr: 0x10000DFBC, symSize: 0x44 }
  - { offset: 0x542CF, size: 0x8, addend: 0x0, symName: __ZNSt3__14pairIKNS_12basic_stringIcNS_11char_traitsIcEENS_9allocatorIcEEEEPN2sf7TextureEEC1B8ne180100IJOS6_EJEJLm0EETpTnmJEEENS_21piecewise_construct_tERNS_5tupleIJDpT_EEERNSF_IJDpT0_EEENS_15__tuple_indicesIJXspT1_EEEENSO_IJXspT2_EEEE, symObjAddr: 0x2B34, symBinAddr: 0x10000E000, symSize: 0x3C }
  - { offset: 0x54362, size: 0x8, addend: 0x0, symName: __ZNSt3__14pairIKNS_12basic_stringIcNS_11char_traitsIcEENS_9allocatorIcEEEEPN2sf7TextureEEC2B8ne180100IJOS6_EJEJLm0EETpTnmJEEENS_21piecewise_construct_tERNS_5tupleIJDpT_EEERNSF_IJDpT0_EEENS_15__tuple_indicesIJXspT1_EEEENSO_IJXspT2_EEEE, symObjAddr: 0x2B70, symBinAddr: 0x10000E03C, symSize: 0x48 }
  - { offset: 0x543F5, size: 0x8, addend: 0x0, symName: __ZNSt3__112basic_stringIcNS_11char_traitsIcEENS_9allocatorIcEEEC1B8ne180100EOS5_, symObjAddr: 0x2BDC, symBinAddr: 0x10000E0A8, symSize: 0x34 }
  - { offset: 0x5442E, size: 0x8, addend: 0x0, symName: __ZNSt3__112__tuple_leafILm0EONS_12basic_stringIcNS_11char_traitsIcEENS_9allocatorIcEEEELb0EE3getB8ne180100Ev, symObjAddr: 0x2C10, symBinAddr: 0x10000E0DC, symSize: 0x18 }
  - { offset: 0x54454, size: 0x8, addend: 0x0, symName: __ZNSt3__112basic_stringIcNS_11char_traitsIcEENS_9allocatorIcEEEC2B8ne180100EOS5_, symObjAddr: 0x2C28, symBinAddr: 0x10000E0F4, symSize: 0xB8 }
  - { offset: 0x544BD, size: 0x8, addend: 0x0, symName: __ZZNSt3__112basic_stringIcNS_11char_traitsIcEENS_9allocatorIcEEEC1B8ne180100EOS5_ENKUlRS5_E_clES7_, symObjAddr: 0x2CE0, symBinAddr: 0x10000E1AC, symSize: 0x40 }
  - { offset: 0x544F6, size: 0x8, addend: 0x0, symName: __ZNKSt3__112basic_stringIcNS_11char_traitsIcEENS_9allocatorIcEEE14__annotate_newB8ne180100Em, symObjAddr: 0x2D44, symBinAddr: 0x10000E1EC, symSize: 0x14 }
  - { offset: 0x5452B, size: 0x8, addend: 0x0, symName: __ZNKSt3__112basic_stringIcNS_11char_traitsIcEENS_9allocatorIcEEE17__annotate_deleteB8ne180100Ev, symObjAddr: 0x2D58, symBinAddr: 0x10000E200, symSize: 0x10 }
  - { offset: 0x54551, size: 0x8, addend: 0x0, symName: __ZNKSt3__117__compressed_pairIPNS_11__tree_nodeINS_12__value_typeINS_12basic_stringIcNS_11char_traitsIcEENS_9allocatorIcEEEEPN2sf7TextureEEEPvEENS_22__tree_node_destructorINS6_ISE_EEEEE5firstB8ne180100Ev, symObjAddr: 0x2D7C, symBinAddr: 0x10000E210, symSize: 0x24 }
  - { offset: 0x54577, size: 0x8, addend: 0x0, symName: __ZNKSt3__122__compressed_pair_elemIPNS_11__tree_nodeINS_12__value_typeINS_12basic_stringIcNS_11char_traitsIcEENS_9allocatorIcEEEEPN2sf7TextureEEEPvEELi0ELb0EE5__getB8ne180100Ev, symObjAddr: 0x2DA0, symBinAddr: 0x10000E234, symSize: 0x14 }
  - { offset: 0x5459D, size: 0x8, addend: 0x0, symName: __ZNSt3__117__compressed_pairIPNS_11__tree_nodeINS_12__value_typeINS_12basic_stringIcNS_11char_traitsIcEENS_9allocatorIcEEEEPN2sf7TextureEEEPvEENS_22__tree_node_destructorINS6_ISE_EEEEE6secondB8ne180100Ev, symObjAddr: 0x2DB4, symBinAddr: 0x10000E248, symSize: 0x28 }
  - { offset: 0x545C3, size: 0x8, addend: 0x0, symName: __ZNSt3__122__compressed_pair_elemINS_22__tree_node_destructorINS_9allocatorINS_11__tree_nodeINS_12__value_typeINS_12basic_stringIcNS_11char_traitsIcEENS2_IcEEEEPN2sf7TextureEEEPvEEEEEELi1ELb0EE5__getB8ne180100Ev, symObjAddr: 0x2DDC, symBinAddr: 0x10000E270, symSize: 0x14 }
  - { offset: 0x545E9, size: 0x8, addend: 0x0, symName: __ZNSt3__16__treeINS_12__value_typeINS_12basic_stringIcNS_11char_traitsIcEENS_9allocatorIcEEEEPN2sf7TextureEEENS_19__map_value_compareIS7_SB_NS_4lessIS7_EELb1EEENS5_ISB_EEE4sizeB8ne180100Ev, symObjAddr: 0x3110, symBinAddr: 0x10000E284, symSize: 0x28 }
  - { offset: 0x5460F, size: 0x8, addend: 0x0, symName: __ZNSt3__117__compressed_pairImNS_19__map_value_compareINS_12basic_stringIcNS_11char_traitsIcEENS_9allocatorIcEEEENS_12__value_typeIS7_PN2sf7TextureEEENS_4lessIS7_EELb1EEEE5firstB8ne180100Ev, symObjAddr: 0x332C, symBinAddr: 0x10000E2AC, symSize: 0x24 }
  - { offset: 0x54635, size: 0x8, addend: 0x0, symName: __ZNSt3__117__compressed_pairIPNS_11__tree_nodeINS_12__value_typeINS_12basic_stringIcNS_11char_traitsIcEENS_9allocatorIcEEEEPN2sf7TextureEEEPvEENS_22__tree_node_destructorINS6_ISE_EEEEE5firstB8ne180100Ev, symObjAddr: 0x3364, symBinAddr: 0x10000E2D0, symSize: 0x24 }
  - { offset: 0x5465B, size: 0x8, addend: 0x0, symName: __ZNSt3__122__compressed_pair_elemIPNS_11__tree_nodeINS_12__value_typeINS_12basic_stringIcNS_11char_traitsIcEENS_9allocatorIcEEEEPN2sf7TextureEEEPvEELi0ELb0EE5__getB8ne180100Ev, symObjAddr: 0x3388, symBinAddr: 0x10000E2F4, symSize: 0x14 }
  - { offset: 0x54681, size: 0x8, addend: 0x0, symName: __ZNSt3__110unique_ptrINS_11__tree_nodeINS_12__value_typeINS_12basic_stringIcNS_11char_traitsIcEENS_9allocatorIcEEEEPN2sf7TextureEEEPvEENS_22__tree_node_destructorINS6_ISE_EEEEED2B8ne180100Ev, symObjAddr: 0x339C, symBinAddr: 0x10000E308, symSize: 0x30 }
  - { offset: 0x546AB, size: 0x8, addend: 0x0, symName: __ZNSt3__110unique_ptrINS_11__tree_nodeINS_12__value_typeINS_12basic_stringIcNS_11char_traitsIcEENS_9allocatorIcEEEEPN2sf7TextureEEEPvEENS_22__tree_node_destructorINS6_ISE_EEEEE5resetB8ne180100EPSE_, symObjAddr: 0x33CC, symBinAddr: 0x10000E338, symSize: 0x70 }
  - { offset: 0x546EF, size: 0x8, addend: 0x0, symName: __ZNSt3__122__tree_node_destructorINS_9allocatorINS_11__tree_nodeINS_12__value_typeINS_12basic_stringIcNS_11char_traitsIcEENS1_IcEEEEPN2sf7TextureEEEPvEEEEEclB8ne180100EPSE_, symObjAddr: 0x343C, symBinAddr: 0x10000E3A8, symSize: 0x90 }
  - { offset: 0x54724, size: 0x8, addend: 0x0, symName: __ZNSt3__115__tree_iteratorINS_12__value_typeINS_12basic_stringIcNS_11char_traitsIcEENS_9allocatorIcEEEEPN2sf7TextureEEEPNS_11__tree_nodeISB_PvEElEC2B8ne180100ESF_, symObjAddr: 0x36EC, symBinAddr: 0x10000E438, symSize: 0x20 }
  - { offset: 0x5475D, size: 0x8, addend: 0x0, symName: __ZNSt3__14pairINS_15__tree_iteratorINS_12__value_typeINS_12basic_stringIcNS_11char_traitsIcEENS_9allocatorIcEEEEPN2sf7TextureEEEPNS_11__tree_nodeISC_PvEElEEbEC2B8ne180100ISH_RbTnNS_9enable_ifIXclsr10_CheckArgsE17__enable_implicitIT_T0_EEEiE4typeELi0EEEOSM_OSN_, symObjAddr: 0x370C, symBinAddr: 0x10000E458, symSize: 0x38 }
  - { offset: 0x547BB, size: 0x8, addend: 0x0, symName: __ZNSt3__15tupleIJONS_12basic_stringIcNS_11char_traitsIcEENS_9allocatorIcEEEEEEC1B8ne180100IJS6_ETnNS_9enable_ifIXsr4_AndINS_17integral_constantIbXeqsZT_sZT_EEENS8_17_EnableUTypesCtorIJDpT_EEEEE5valueEiE4typeELi0EEEDpOSE_, symObjAddr: 0x3744, symBinAddr: 0x10000E490, symSize: 0x34 }
  - { offset: 0x54807, size: 0x8, addend: 0x0, symName: __ZNSt3__15tupleIJONS_12basic_stringIcNS_11char_traitsIcEENS_9allocatorIcEEEEEEC2B8ne180100IJS6_ETnNS_9enable_ifIXsr4_AndINS_17integral_constantIbXeqsZT_sZT_EEENS8_17_EnableUTypesCtorIJDpT_EEEEE5valueEiE4typeELi0EEEDpOSE_, symObjAddr: 0x3778, symBinAddr: 0x10000E4C4, symSize: 0x34 }
  - { offset: 0x54853, size: 0x8, addend: 0x0, symName: __ZNSt3__112__tuple_implINS_15__tuple_indicesIJLm0EEEEJONS_12basic_stringIcNS_11char_traitsIcEENS_9allocatorIcEEEEEEC1B8ne180100IJLm0EEJS9_ETpTnmJEJEJS8_EEENS1_IJXspT_EEEENS_13__tuple_typesIJDpT0_EEENS1_IJXspT1_EEEENSD_IJDpT2_EEEDpOT3_, symObjAddr: 0x37AC, symBinAddr: 0x10000E4F8, symSize: 0x34 }
  - { offset: 0x548F0, size: 0x8, addend: 0x0, symName: __ZNSt3__112__tuple_implINS_15__tuple_indicesIJLm0EEEEJONS_12basic_stringIcNS_11char_traitsIcEENS_9allocatorIcEEEEEEC2B8ne180100IJLm0EEJS9_ETpTnmJEJEJS8_EEENS1_IJXspT_EEEENS_13__tuple_typesIJDpT0_EEENS1_IJXspT1_EEEENSD_IJDpT2_EEEDpOT3_, symObjAddr: 0x37E0, symBinAddr: 0x10000E52C, symSize: 0x34 }
  - { offset: 0x5498D, size: 0x8, addend: 0x0, symName: __ZNSt3__112__tuple_leafILm0EONS_12basic_stringIcNS_11char_traitsIcEENS_9allocatorIcEEEELb0EEC2B8ne180100IS6_vEEOT_, symObjAddr: 0x3814, symBinAddr: 0x10000E560, symSize: 0x20 }
  - { offset: 0x549EE, size: 0x8, addend: 0x0, symName: __ZNKSt3__113basic_ostreamIcNS_11char_traitsIcEEE6sentrycvbB8ne180100Ev, symObjAddr: 0x3A80, symBinAddr: 0x10000E768, symSize: 0x1C }
  - { offset: 0x54A14, size: 0x8, addend: 0x0, symName: __ZNSt3__119ostreambuf_iteratorIcNS_11char_traitsIcEEEC1B8ne180100ERNS_13basic_ostreamIcS2_EE, symObjAddr: 0x3CB0, symBinAddr: 0x10000E998, symSize: 0x34 }
  - { offset: 0x54A4C, size: 0x8, addend: 0x0, symName: __ZNKSt3__18ios_base5flagsB8ne180100Ev, symObjAddr: 0x3CE4, symBinAddr: 0x10000E9CC, symSize: 0x18 }
  - { offset: 0x54A74, size: 0x8, addend: 0x0, symName: __ZNKSt3__19basic_iosIcNS_11char_traitsIcEEE4fillB8ne180100Ev, symObjAddr: 0x3CFC, symBinAddr: 0x10000E9E4, symSize: 0x64 }
  - { offset: 0x54A9C, size: 0x8, addend: 0x0, symName: __ZNKSt3__119ostreambuf_iteratorIcNS_11char_traitsIcEEE6failedB8ne180100Ev, symObjAddr: 0x3D60, symBinAddr: 0x10000EA48, symSize: 0x20 }
  - { offset: 0x54AC2, size: 0x8, addend: 0x0, symName: __ZNSt3__115basic_streambufIcNS_11char_traitsIcEEE5sputnB8ne180100EPKcl, symObjAddr: 0x3DC4, symBinAddr: 0x10000EA68, symSize: 0x3C }
  - { offset: 0x54B04, size: 0x8, addend: 0x0, symName: __ZNSt3__112basic_stringIcNS_11char_traitsIcEENS_9allocatorIcEEEC1B8ne180100Emc, symObjAddr: 0x3E00, symBinAddr: 0x10000EAA4, symSize: 0x3C }
  - { offset: 0x54B4C, size: 0x8, addend: 0x0, symName: __ZNSt3__112basic_stringIcNS_11char_traitsIcEENS_9allocatorIcEEE4dataB8ne180100Ev, symObjAddr: 0x3E3C, symBinAddr: 0x10000EAE0, symSize: 0x28 }
  - { offset: 0x54B72, size: 0x8, addend: 0x0, symName: __ZNSt3__112basic_stringIcNS_11char_traitsIcEENS_9allocatorIcEEEC2B8ne180100Emc, symObjAddr: 0x3E90, symBinAddr: 0x10000EB08, symSize: 0x4C }
  - { offset: 0x54BBA, size: 0x8, addend: 0x0, symName: __ZNSt3__112basic_stringIcNS_11char_traitsIcEENS_9allocatorIcEEE13__get_pointerB8ne180100Ev, symObjAddr: 0x3EF0, symBinAddr: 0x10000EB68, symSize: 0x54 }
  - { offset: 0x54BE0, size: 0x8, addend: 0x0, symName: __ZNSt3__119ostreambuf_iteratorIcNS_11char_traitsIcEEEC2B8ne180100ERNS_13basic_ostreamIcS2_EE, symObjAddr: 0x3FA8, symBinAddr: 0x10000EBBC, symSize: 0x54 }
  - { offset: 0x54C18, size: 0x8, addend: 0x0, symName: __ZNKSt3__19basic_iosIcNS_11char_traitsIcEEE5widenB8ne180100Ec, symObjAddr: 0x4064, symBinAddr: 0x10000EC10, symSize: 0x84 }
  - { offset: 0x54C54, size: 0x8, addend: 0x0, symName: __ZNKSt3__15ctypeIcE5widenB8ne180100Ec, symObjAddr: 0x4114, symBinAddr: 0x10000EC94, symSize: 0x38 }
  - { offset: 0x54C89, size: 0x8, addend: 0x0, symName: __ZN2sf7Vector2IfEC2Eff, symObjAddr: 0x4180, symBinAddr: 0x10000ECCC, symSize: 0x2C }
  - { offset: 0x6E34D, size: 0x8, addend: 0x0, symName: __ZNSt3__1neB8ne180100ERKNS_14__map_iteratorINS_15__tree_iteratorINS_12__value_typeINS_12basic_stringIcNS_11char_traitsIcEENS_9allocatorIcEEEEP6ButtonEEPNS_11__tree_nodeISB_PvEElEEEESJ_, symObjAddr: 0x1538, symBinAddr: 0x10000FA5C, symSize: 0x2C }
  - { offset: 0x6E38A, size: 0x8, addend: 0x0, symName: __ZNSt3__17launderB8ne180100IKNS_4pairIKNS_12basic_stringIcNS_11char_traitsIcEENS_9allocatorIcEEEEP6ButtonEEEEPT_SE_, symObjAddr: 0x548C, symBinAddr: 0x100010740, symSize: 0x24 }
  - { offset: 0x6E3C1, size: 0x8, addend: 0x0, symName: __ZNSt3__19__launderB8ne180100IKNS_4pairIKNS_12basic_stringIcNS_11char_traitsIcEENS_9allocatorIcEEEEP6ButtonEEEEPT_SE_, symObjAddr: 0x54B0, symBinAddr: 0x100010764, symSize: 0x14 }
  - { offset: 0x6E416, size: 0x8, addend: 0x0, symName: __ZNSt3__112__destroy_atB8ne180100INS_4pairIKNS_12basic_stringIcNS_11char_traitsIcEENS_9allocatorIcEEEEP6ButtonEETnNS_9enable_ifIXntsr8is_arrayIT_EE5valueEiE4typeELi0EEEvPSD_, symObjAddr: 0x5DA4, symBinAddr: 0x100010ECC, symSize: 0x24 }
  - { offset: 0x6E480, size: 0x8, addend: 0x0, symName: __ZNSt3__17launderB8ne180100INS_4pairIKNS_12basic_stringIcNS_11char_traitsIcEENS_9allocatorIcEEEEP6ButtonEEEEPT_SD_, symObjAddr: 0x5FD4, symBinAddr: 0x10001100C, symSize: 0x24 }
  - { offset: 0x6E4B7, size: 0x8, addend: 0x0, symName: __ZNSt3__19__launderB8ne180100INS_4pairIKNS_12basic_stringIcNS_11char_traitsIcEENS_9allocatorIcEEEEP6ButtonEEEEPT_SD_, symObjAddr: 0x5FF8, symBinAddr: 0x100011030, symSize: 0x14 }
  - { offset: 0x6E4EE, size: 0x8, addend: 0x0, symName: __ZNSt3__1neB8ne180100ERKNS_15__tree_iteratorINS_12__value_typeINS_12basic_stringIcNS_11char_traitsIcEENS_9allocatorIcEEEEP6ButtonEEPNS_11__tree_nodeISA_PvEElEESH_, symObjAddr: 0x6578, symBinAddr: 0x10001151C, symSize: 0x30 }
  - { offset: 0x6E52B, size: 0x8, addend: 0x0, symName: __ZNSt3__1eqB8ne180100ERKNS_15__tree_iteratorINS_12__value_typeINS_12basic_stringIcNS_11char_traitsIcEENS_9allocatorIcEEEEP6ButtonEEPNS_11__tree_nodeISA_PvEElEESH_, symObjAddr: 0x65A8, symBinAddr: 0x10001154C, symSize: 0x2C }
  - { offset: 0x719D5, size: 0x8, addend: 0x0, symName: __ZN15Main_menu_state14initBackGroundEv, symObjAddr: 0x0, symBinAddr: 0x10000ECF8, symSize: 0x124 }
  - { offset: 0x71A02, size: 0x8, addend: 0x0, symName: __ZN2sf4RectIiEC1Eiiii, symObjAddr: 0x184, symBinAddr: 0x10000EE1C, symSize: 0x4C }
  - { offset: 0x71A66, size: 0x8, addend: 0x0, symName: __ZN15Main_menu_state13initVariablesEv, symObjAddr: 0x1D0, symBinAddr: 0x10000EE68, symSize: 0xB4 }
  - { offset: 0x71A8E, size: 0x8, addend: 0x0, symName: __ZN15Main_menu_state13initKeyBindesEv, symObjAddr: 0x284, symBinAddr: 0x10000EF1C, symSize: 0x274 }
  - { offset: 0x71D38, size: 0x8, addend: 0x0, symName: __ZN15Main_menu_state11initButtonsEv, symObjAddr: 0xC30, symBinAddr: 0x10000F190, symSize: 0x4B4 }
  - { offset: 0x71D7C, size: 0x8, addend: 0x0, symName: __ZNSt3__13mapINS_12basic_stringIcNS_11char_traitsIcEENS_9allocatorIcEEEEP6ButtonNS_4lessIS6_EENS4_INS_4pairIKS6_S8_EEEEEixEOS6_, symObjAddr: 0x1120, symBinAddr: 0x10000F644, symSize: 0x80 }
  - { offset: 0x71DB3, size: 0x8, addend: 0x0, symName: __ZN15Main_menu_stateC2EPN2sf12RenderWindowEPNSt3__13mapINS3_12basic_stringIcNS3_11char_traitsIcEENS3_9allocatorIcEEEEiNS3_4lessISA_EENS8_INS3_4pairIKSA_iEEEEEEPNS3_5stackIP5StateNS3_5dequeISL_NS8_ISL_EEEEEE, symObjAddr: 0x11A0, symBinAddr: 0x10000F6C4, symSize: 0x130 }
  - { offset: 0x71E09, size: 0x8, addend: 0x0, symName: __ZNSt3__13mapINS_12basic_stringIcNS_11char_traitsIcEENS_9allocatorIcEEEEP6ButtonNS_4lessIS6_EENS4_INS_4pairIKS6_S8_EEEEEC1B8ne180100Ev, symObjAddr: 0x12D0, symBinAddr: 0x10000F7F4, symSize: 0x2C }
  - { offset: 0x71E33, size: 0x8, addend: 0x0, symName: __ZNSt3__13mapINS_12basic_stringIcNS_11char_traitsIcEENS_9allocatorIcEEEEP6ButtonNS_4lessIS6_EENS4_INS_4pairIKS6_S8_EEEEED1B8ne180100Ev, symObjAddr: 0x12FC, symBinAddr: 0x10000F820, symSize: 0x2C }
  - { offset: 0x71E5D, size: 0x8, addend: 0x0, symName: __ZN2sf6SpriteD1Ev, symObjAddr: 0x1328, symBinAddr: 0x10000F84C, symSize: 0x2C }
  - { offset: 0x71E89, size: 0x8, addend: 0x0, symName: __ZN15Main_menu_stateC1EPN2sf12RenderWindowEPNSt3__13mapINS3_12basic_stringIcNS3_11char_traitsIcEENS3_9allocatorIcEEEEiNS3_4lessISA_EENS8_INS3_4pairIKSA_iEEEEEEPNS3_5stackIP5StateNS3_5dequeISL_NS8_ISL_EEEEEE, symObjAddr: 0x1354, symBinAddr: 0x10000F878, symSize: 0x44 }
  - { offset: 0x71EDF, size: 0x8, addend: 0x0, symName: __ZN15Main_menu_stateD2Ev, symObjAddr: 0x1398, symBinAddr: 0x10000F8BC, symSize: 0x130 }
  - { offset: 0x71F55, size: 0x8, addend: 0x0, symName: __ZNSt3__13mapINS_12basic_stringIcNS_11char_traitsIcEENS_9allocatorIcEEEEP6ButtonNS_4lessIS6_EENS4_INS_4pairIKS6_S8_EEEEE5beginB8ne180100Ev, symObjAddr: 0x14C8, symBinAddr: 0x10000F9EC, symSize: 0x38 }
  - { offset: 0x71F7B, size: 0x8, addend: 0x0, symName: __ZNSt3__13mapINS_12basic_stringIcNS_11char_traitsIcEENS_9allocatorIcEEEEP6ButtonNS_4lessIS6_EENS4_INS_4pairIKS6_S8_EEEEE3endB8ne180100Ev, symObjAddr: 0x1500, symBinAddr: 0x10000FA24, symSize: 0x38 }
  - { offset: 0x71FA1, size: 0x8, addend: 0x0, symName: __ZNKSt3__114__map_iteratorINS_15__tree_iteratorINS_12__value_typeINS_12basic_stringIcNS_11char_traitsIcEENS_9allocatorIcEEEEP6ButtonEEPNS_11__tree_nodeISB_PvEElEEEdeB8ne180100Ev, symObjAddr: 0x1574, symBinAddr: 0x10000FA88, symSize: 0x28 }
  - { offset: 0x71FC7, size: 0x8, addend: 0x0, symName: __ZNSt3__114__map_iteratorINS_15__tree_iteratorINS_12__value_typeINS_12basic_stringIcNS_11char_traitsIcEENS_9allocatorIcEEEEP6ButtonEEPNS_11__tree_nodeISB_PvEElEEEppB8ne180100Ev, symObjAddr: 0x159C, symBinAddr: 0x10000FAB0, symSize: 0x2C }
  - { offset: 0x71FED, size: 0x8, addend: 0x0, symName: __ZN15Main_menu_stateD1Ev, symObjAddr: 0x15C8, symBinAddr: 0x10000FADC, symSize: 0x2C }
  - { offset: 0x72019, size: 0x8, addend: 0x0, symName: __ZN15Main_menu_stateD0Ev, symObjAddr: 0x15F4, symBinAddr: 0x10000FB08, symSize: 0x30 }
  - { offset: 0x72045, size: 0x8, addend: 0x0, symName: __ZN15Main_menu_state15updateKeyBindesERKf, symObjAddr: 0x1624, symBinAddr: 0x10000FB38, symSize: 0x14 }
  - { offset: 0x7207B, size: 0x8, addend: 0x0, symName: __ZN15Main_menu_state11updateStateERKf, symObjAddr: 0x1638, symBinAddr: 0x10000FB4C, symSize: 0x1B4 }
  - { offset: 0x720B1, size: 0x8, addend: 0x0, symName: __ZN15Main_menu_state13updateButtonsERKf, symObjAddr: 0x17EC, symBinAddr: 0x10000FD00, symSize: 0xA8 }
  - { offset: 0x720F5, size: 0x8, addend: 0x0, symName: __ZNKSt3__114__map_iteratorINS_15__tree_iteratorINS_12__value_typeINS_12basic_stringIcNS_11char_traitsIcEENS_9allocatorIcEEEEP6ButtonEEPNS_11__tree_nodeISB_PvEElEEEptB8ne180100Ev, symObjAddr: 0x18C0, symBinAddr: 0x10000FDA8, symSize: 0x2C }
  - { offset: 0x7211B, size: 0x8, addend: 0x0, symName: __ZN15Main_menu_state9drawStateEPN2sf12RenderTargetE, symObjAddr: 0x18EC, symBinAddr: 0x10000FDD4, symSize: 0x90 }
  - { offset: 0x72151, size: 0x8, addend: 0x0, symName: __ZN15Main_menu_state11drawButtonsEPN2sf12RenderTargetE, symObjAddr: 0x197C, symBinAddr: 0x10000FE64, symSize: 0x98 }
  - { offset: 0x72195, size: 0x8, addend: 0x0, symName: __ZN15Main_menu_state8endStateEv, symObjAddr: 0x1A14, symBinAddr: 0x10000FEFC, symSize: 0x1C }
  - { offset: 0x721BD, size: 0x8, addend: 0x0, symName: __ZN2sf6SpriteD2Ev, symObjAddr: 0x1ABC, symBinAddr: 0x10000FF18, symSize: 0x38 }
  - { offset: 0x721E9, size: 0x8, addend: 0x0, symName: __ZThn8_N2sf6SpriteD1Ev, symObjAddr: 0x1AF4, symBinAddr: 0x10000FF50, symSize: 0x1C }
  - { offset: 0x721FF, size: 0x8, addend: 0x0, symName: __ZN2sf8DrawableD2Ev, symObjAddr: 0x1B10, symBinAddr: 0x10000FF6C, symSize: 0x14 }
  - { offset: 0x72229, size: 0x8, addend: 0x0, symName: __ZN2sf4RectIiEC2Eiiii, symObjAddr: 0x1B48, symBinAddr: 0x10000FF80, symSize: 0x44 }
  - { offset: 0x722C9, size: 0x8, addend: 0x0, symName: __ZNSt3__16__treeINS_12__value_typeINS_12basic_stringIcNS_11char_traitsIcEENS_9allocatorIcEEEEP6ButtonEENS_19__map_value_compareIS7_SA_NS_4lessIS7_EELb1EEENS5_ISA_EEE25__emplace_unique_key_argsIS7_JRKNS_21piecewise_construct_tENS_5tupleIJOS7_EEENSL_IJEEEEEENS_4pairINS_15__tree_iteratorISA_PNS_11__tree_nodeISA_PvEElEEbEERKT_DpOT0_, symObjAddr: 0x4CE4, symBinAddr: 0x10000FFC4, symSize: 0xF8 }
  - { offset: 0x723A2, size: 0x8, addend: 0x0, symName: __ZNKSt3__115__tree_iteratorINS_12__value_typeINS_12basic_stringIcNS_11char_traitsIcEENS_9allocatorIcEEEEP6ButtonEEPNS_11__tree_nodeISA_PvEElEptB8ne180100Ev, symObjAddr: 0x4E08, symBinAddr: 0x1000100BC, symSize: 0x2C }
  - { offset: 0x723C8, size: 0x8, addend: 0x0, symName: __ZNSt3__112__value_typeINS_12basic_stringIcNS_11char_traitsIcEENS_9allocatorIcEEEEP6ButtonE11__get_valueB8ne180100Ev, symObjAddr: 0x4E34, symBinAddr: 0x1000100E8, symSize: 0x24 }
  - { offset: 0x723EE, size: 0x8, addend: 0x0, symName: __ZNSt3__16__treeINS_12__value_typeINS_12basic_stringIcNS_11char_traitsIcEENS_9allocatorIcEEEEP6ButtonEENS_19__map_value_compareIS7_SA_NS_4lessIS7_EELb1EEENS5_ISA_EEE12__find_equalIS7_EERPNS_16__tree_node_baseIPvEERPNS_15__tree_end_nodeISL_EERKT_, symObjAddr: 0x4E58, symBinAddr: 0x10001010C, symSize: 0x16C }
  - { offset: 0x72459, size: 0x8, addend: 0x0, symName: __ZNSt3__16__treeINS_12__value_typeINS_12basic_stringIcNS_11char_traitsIcEENS_9allocatorIcEEEEP6ButtonEENS_19__map_value_compareIS7_SA_NS_4lessIS7_EELb1EEENS5_ISA_EEE16__construct_nodeIJRKNS_21piecewise_construct_tENS_5tupleIJOS7_EEENSL_IJEEEEEENS_10unique_ptrINS_11__tree_nodeISA_PvEENS_22__tree_node_destructorINS5_ISS_EEEEEEDpOT_, symObjAddr: 0x4FC4, symBinAddr: 0x100010278, symSize: 0x120 }
  - { offset: 0x724E4, size: 0x8, addend: 0x0, symName: __ZNSt3__16__treeINS_12__value_typeINS_12basic_stringIcNS_11char_traitsIcEENS_9allocatorIcEEEEP6ButtonEENS_19__map_value_compareIS7_SA_NS_4lessIS7_EELb1EEENS5_ISA_EEE16__insert_node_atEPNS_15__tree_end_nodeIPNS_16__tree_node_baseIPvEEEERSL_SL_, symObjAddr: 0x50E4, symBinAddr: 0x100010398, symSize: 0xC4 }
  - { offset: 0x72539, size: 0x8, addend: 0x0, symName: __ZNKSt3__110unique_ptrINS_11__tree_nodeINS_12__value_typeINS_12basic_stringIcNS_11char_traitsIcEENS_9allocatorIcEEEEP6ButtonEEPvEENS_22__tree_node_destructorINS6_ISD_EEEEE3getB8ne180100Ev, symObjAddr: 0x51A8, symBinAddr: 0x10001045C, symSize: 0x28 }
  - { offset: 0x7255F, size: 0x8, addend: 0x0, symName: __ZNSt3__110unique_ptrINS_11__tree_nodeINS_12__value_typeINS_12basic_stringIcNS_11char_traitsIcEENS_9allocatorIcEEEEP6ButtonEEPvEENS_22__tree_node_destructorINS6_ISD_EEEEE7releaseB8ne180100Ev, symObjAddr: 0x51D0, symBinAddr: 0x100010484, symSize: 0x44 }
  - { offset: 0x72594, size: 0x8, addend: 0x0, symName: __ZNSt3__110unique_ptrINS_11__tree_nodeINS_12__value_typeINS_12basic_stringIcNS_11char_traitsIcEENS_9allocatorIcEEEEP6ButtonEEPvEENS_22__tree_node_destructorINS6_ISD_EEEEED1B8ne180100Ev, symObjAddr: 0x5214, symBinAddr: 0x1000104C8, symSize: 0x2C }
  - { offset: 0x725BE, size: 0x8, addend: 0x0, symName: __ZNSt3__115__tree_iteratorINS_12__value_typeINS_12basic_stringIcNS_11char_traitsIcEENS_9allocatorIcEEEEP6ButtonEEPNS_11__tree_nodeISA_PvEElEC1B8ne180100ESE_, symObjAddr: 0x5240, symBinAddr: 0x1000104F4, symSize: 0x34 }
  - { offset: 0x725FC, size: 0x8, addend: 0x0, symName: __ZNSt3__14pairINS_15__tree_iteratorINS_12__value_typeINS_12basic_stringIcNS_11char_traitsIcEENS_9allocatorIcEEEEP6ButtonEEPNS_11__tree_nodeISB_PvEElEEbEC1B8ne180100ISG_RbTnNS_9enable_ifIXclsr10_CheckArgsE17__enable_implicitIT_T0_EEEiE4typeELi0EEEOSL_OSM_, symObjAddr: 0x5274, symBinAddr: 0x100010528, symSize: 0x3C }
  - { offset: 0x7265A, size: 0x8, addend: 0x0, symName: __ZNKSt3__16__treeINS_12__value_typeINS_12basic_stringIcNS_11char_traitsIcEENS_9allocatorIcEEEEP6ButtonEENS_19__map_value_compareIS7_SA_NS_4lessIS7_EELb1EEENS5_ISA_EEE6__rootB8ne180100Ev, symObjAddr: 0x52B0, symBinAddr: 0x100010564, symSize: 0x28 }
  - { offset: 0x72680, size: 0x8, addend: 0x0, symName: __ZNKSt3__16__treeINS_12__value_typeINS_12basic_stringIcNS_11char_traitsIcEENS_9allocatorIcEEEEP6ButtonEENS_19__map_value_compareIS7_SA_NS_4lessIS7_EELb1EEENS5_ISA_EEE10__root_ptrB8ne180100Ev, symObjAddr: 0x52D8, symBinAddr: 0x10001058C, symSize: 0x24 }
  - { offset: 0x726A6, size: 0x8, addend: 0x0, symName: __ZNSt3__16__treeINS_12__value_typeINS_12basic_stringIcNS_11char_traitsIcEENS_9allocatorIcEEEEP6ButtonEENS_19__map_value_compareIS7_SA_NS_4lessIS7_EELb1EEENS5_ISA_EEE10value_compB8ne180100Ev, symObjAddr: 0x52FC, symBinAddr: 0x1000105B0, symSize: 0x28 }
  - { offset: 0x726CC, size: 0x8, addend: 0x0, symName: __ZNKSt3__119__map_value_compareINS_12basic_stringIcNS_11char_traitsIcEENS_9allocatorIcEEEENS_12__value_typeIS6_P6ButtonEENS_4lessIS6_EELb1EEclB8ne180100ERKS6_RKSA_, symObjAddr: 0x5324, symBinAddr: 0x1000105D8, symSize: 0x4C }
  - { offset: 0x72710, size: 0x8, addend: 0x0, symName: __ZNKSt3__119__map_value_compareINS_12basic_stringIcNS_11char_traitsIcEENS_9allocatorIcEEEENS_12__value_typeIS6_P6ButtonEENS_4lessIS6_EELb1EEclB8ne180100ERKSA_RKS6_, symObjAddr: 0x5370, symBinAddr: 0x100010624, symSize: 0x44 }
  - { offset: 0x72754, size: 0x8, addend: 0x0, symName: __ZNSt3__16__treeINS_12__value_typeINS_12basic_stringIcNS_11char_traitsIcEENS_9allocatorIcEEEEP6ButtonEENS_19__map_value_compareIS7_SA_NS_4lessIS7_EELb1EEENS5_ISA_EEE10__end_nodeB8ne180100Ev, symObjAddr: 0x53B4, symBinAddr: 0x100010668, symSize: 0x2C }
  - { offset: 0x7277A, size: 0x8, addend: 0x0, symName: __ZNKSt3__16__treeINS_12__value_typeINS_12basic_stringIcNS_11char_traitsIcEENS_9allocatorIcEEEEP6ButtonEENS_19__map_value_compareIS7_SA_NS_4lessIS7_EELb1EEENS5_ISA_EEE10__end_nodeB8ne180100Ev, symObjAddr: 0x53E0, symBinAddr: 0x100010694, symSize: 0x2C }
  - { offset: 0x727A0, size: 0x8, addend: 0x0, symName: __ZNKSt3__117__compressed_pairINS_15__tree_end_nodeIPNS_16__tree_node_baseIPvEEEENS_9allocatorINS_11__tree_nodeINS_12__value_typeINS_12basic_stringIcNS_11char_traitsIcEENS7_IcEEEEP6ButtonEES3_EEEEE5firstB8ne180100Ev, symObjAddr: 0x540C, symBinAddr: 0x1000106C0, symSize: 0x24 }
  - { offset: 0x727C6, size: 0x8, addend: 0x0, symName: __ZNSt3__117__compressed_pairImNS_19__map_value_compareINS_12basic_stringIcNS_11char_traitsIcEENS_9allocatorIcEEEENS_12__value_typeIS7_P6ButtonEENS_4lessIS7_EELb1EEEE6secondB8ne180100Ev, symObjAddr: 0x5430, symBinAddr: 0x1000106E4, symSize: 0x24 }
  - { offset: 0x727EC, size: 0x8, addend: 0x0, symName: __ZNSt3__122__compressed_pair_elemINS_19__map_value_compareINS_12basic_stringIcNS_11char_traitsIcEENS_9allocatorIcEEEENS_12__value_typeIS7_P6ButtonEENS_4lessIS7_EELb1EEELi1ELb1EE5__getB8ne180100Ev, symObjAddr: 0x5454, symBinAddr: 0x100010708, symSize: 0x14 }
  - { offset: 0x72812, size: 0x8, addend: 0x0, symName: __ZNKSt3__112__value_typeINS_12basic_stringIcNS_11char_traitsIcEENS_9allocatorIcEEEEP6ButtonE11__get_valueB8ne180100Ev, symObjAddr: 0x5468, symBinAddr: 0x10001071C, symSize: 0x24 }
  - { offset: 0x72838, size: 0x8, addend: 0x0, symName: __ZNSt3__117__compressed_pairINS_15__tree_end_nodeIPNS_16__tree_node_baseIPvEEEENS_9allocatorINS_11__tree_nodeINS_12__value_typeINS_12basic_stringIcNS_11char_traitsIcEENS7_IcEEEEP6ButtonEES3_EEEEE5firstB8ne180100Ev, symObjAddr: 0x54C4, symBinAddr: 0x100010778, symSize: 0x24 }
  - { offset: 0x7285E, size: 0x8, addend: 0x0, symName: __ZNSt3__16__treeINS_12__value_typeINS_12basic_stringIcNS_11char_traitsIcEENS_9allocatorIcEEEEP6ButtonEENS_19__map_value_compareIS7_SA_NS_4lessIS7_EELb1EEENS5_ISA_EEE12__node_allocB8ne180100Ev, symObjAddr: 0x54E8, symBinAddr: 0x10001079C, symSize: 0x28 }
  - { offset: 0x72884, size: 0x8, addend: 0x0, symName: __ZNSt3__116allocator_traitsINS_9allocatorINS_11__tree_nodeINS_12__value_typeINS_12basic_stringIcNS_11char_traitsIcEENS1_IcEEEEP6ButtonEEPvEEEEE8allocateB8ne180100ERSE_m, symObjAddr: 0x5510, symBinAddr: 0x1000107C4, symSize: 0x2C }
  - { offset: 0x728B7, size: 0x8, addend: 0x0, symName: __ZNSt3__122__tree_node_destructorINS_9allocatorINS_11__tree_nodeINS_12__value_typeINS_12basic_stringIcNS_11char_traitsIcEENS1_IcEEEEP6ButtonEEPvEEEEEC1B8ne180100ERSE_b, symObjAddr: 0x553C, symBinAddr: 0x1000107F0, symSize: 0x40 }
  - { offset: 0x72904, size: 0x8, addend: 0x0, symName: __ZNSt3__110unique_ptrINS_11__tree_nodeINS_12__value_typeINS_12basic_stringIcNS_11char_traitsIcEENS_9allocatorIcEEEEP6ButtonEEPvEENS_22__tree_node_destructorINS6_ISD_EEEEEC1B8ne180100ILb1EvEEPSD_NS_16__dependent_typeINS_27__unique_ptr_deleter_sfinaeISG_EEXT_EE20__good_rval_ref_typeE, symObjAddr: 0x557C, symBinAddr: 0x100010830, symSize: 0x3C }
  - { offset: 0x72955, size: 0x8, addend: 0x0, symName: __ZNSt3__116allocator_traitsINS_9allocatorINS_11__tree_nodeINS_12__value_typeINS_12basic_stringIcNS_11char_traitsIcEENS1_IcEEEEP6ButtonEEPvEEEEE9constructB8ne180100INS_4pairIKS8_SA_EEJRKNS_21piecewise_construct_tENS_5tupleIJOS8_EEENSN_IJEEEEvEEvRSE_PT_DpOT0_, symObjAddr: 0x55B8, symBinAddr: 0x10001086C, symSize: 0x44 }
  - { offset: 0x729D8, size: 0x8, addend: 0x0, symName: __ZNSt3__122__tree_key_value_typesINS_12__value_typeINS_12basic_stringIcNS_11char_traitsIcEENS_9allocatorIcEEEEP6ButtonEEE9__get_ptrB8ne180100ERSA_, symObjAddr: 0x55FC, symBinAddr: 0x1000108B0, symSize: 0x24 }
  - { offset: 0x729FC, size: 0x8, addend: 0x0, symName: __ZNKSt3__110unique_ptrINS_11__tree_nodeINS_12__value_typeINS_12basic_stringIcNS_11char_traitsIcEENS_9allocatorIcEEEEP6ButtonEEPvEENS_22__tree_node_destructorINS6_ISD_EEEEEptB8ne180100Ev, symObjAddr: 0x5620, symBinAddr: 0x1000108D4, symSize: 0x28 }
  - { offset: 0x72A22, size: 0x8, addend: 0x0, symName: __ZNSt3__110unique_ptrINS_11__tree_nodeINS_12__value_typeINS_12basic_stringIcNS_11char_traitsIcEENS_9allocatorIcEEEEP6ButtonEEPvEENS_22__tree_node_destructorINS6_ISD_EEEEE11get_deleterB8ne180100Ev, symObjAddr: 0x5648, symBinAddr: 0x1000108FC, symSize: 0x24 }
  - { offset: 0x72A48, size: 0x8, addend: 0x0, symName: __ZNSt3__117__compressed_pairINS_15__tree_end_nodeIPNS_16__tree_node_baseIPvEEEENS_9allocatorINS_11__tree_nodeINS_12__value_typeINS_12basic_stringIcNS_11char_traitsIcEENS7_IcEEEEP6ButtonEES3_EEEEE6secondB8ne180100Ev, symObjAddr: 0x566C, symBinAddr: 0x100010920, symSize: 0x24 }
  - { offset: 0x72A6E, size: 0x8, addend: 0x0, symName: __ZNSt3__122__compressed_pair_elemINS_9allocatorINS_11__tree_nodeINS_12__value_typeINS_12basic_stringIcNS_11char_traitsIcEENS1_IcEEEEP6ButtonEEPvEEEELi1ELb1EE5__getB8ne180100Ev, symObjAddr: 0x5690, symBinAddr: 0x100010944, symSize: 0x14 }
  - { offset: 0x72A94, size: 0x8, addend: 0x0, symName: __ZNSt3__19allocatorINS_11__tree_nodeINS_12__value_typeINS_12basic_stringIcNS_11char_traitsIcEENS0_IcEEEEP6ButtonEEPvEEE8allocateB8ne180100Em, symObjAddr: 0x56A4, symBinAddr: 0x100010958, symSize: 0x54 }
  - { offset: 0x72AD2, size: 0x8, addend: 0x0, symName: __ZNSt3__116allocator_traitsINS_9allocatorINS_11__tree_nodeINS_12__value_typeINS_12basic_stringIcNS_11char_traitsIcEENS1_IcEEEEP6ButtonEEPvEEEEE8max_sizeB8ne180100ISE_vEEmRKSE_, symObjAddr: 0x56F8, symBinAddr: 0x1000109AC, symSize: 0x24 }
  - { offset: 0x72B00, size: 0x8, addend: 0x0, symName: __ZNKSt3__19allocatorINS_11__tree_nodeINS_12__value_typeINS_12basic_stringIcNS_11char_traitsIcEENS0_IcEEEEP6ButtonEEPvEEE8max_sizeB8ne180100Ev, symObjAddr: 0x571C, symBinAddr: 0x1000109D0, symSize: 0x14 }
  - { offset: 0x72B26, size: 0x8, addend: 0x0, symName: __ZNSt3__122__tree_node_destructorINS_9allocatorINS_11__tree_nodeINS_12__value_typeINS_12basic_stringIcNS_11char_traitsIcEENS1_IcEEEEP6ButtonEEPvEEEEEC2B8ne180100ERSE_b, symObjAddr: 0x5730, symBinAddr: 0x1000109E4, symSize: 0x30 }
  - { offset: 0x72B6E, size: 0x8, addend: 0x0, symName: __ZNSt3__110unique_ptrINS_11__tree_nodeINS_12__value_typeINS_12basic_stringIcNS_11char_traitsIcEENS_9allocatorIcEEEEP6ButtonEEPvEENS_22__tree_node_destructorINS6_ISD_EEEEEC2B8ne180100ILb1EvEEPSD_NS_16__dependent_typeINS_27__unique_ptr_deleter_sfinaeISG_EEXT_EE20__good_rval_ref_typeE, symObjAddr: 0x5760, symBinAddr: 0x100010A14, symSize: 0x48 }
  - { offset: 0x72BBF, size: 0x8, addend: 0x0, symName: __ZNSt3__117__compressed_pairIPNS_11__tree_nodeINS_12__value_typeINS_12basic_stringIcNS_11char_traitsIcEENS_9allocatorIcEEEEP6ButtonEEPvEENS_22__tree_node_destructorINS6_ISD_EEEEEC1B8ne180100IRSE_SH_EEOT_OT0_, symObjAddr: 0x57A8, symBinAddr: 0x100010A5C, symSize: 0x3C }
  - { offset: 0x72C17, size: 0x8, addend: 0x0, symName: __ZNSt3__117__compressed_pairIPNS_11__tree_nodeINS_12__value_typeINS_12basic_stringIcNS_11char_traitsIcEENS_9allocatorIcEEEEP6ButtonEEPvEENS_22__tree_node_destructorINS6_ISD_EEEEEC2B8ne180100IRSE_SH_EEOT_OT0_, symObjAddr: 0x57E4, symBinAddr: 0x100010A98, symSize: 0x48 }
  - { offset: 0x72C6F, size: 0x8, addend: 0x0, symName: __ZNSt3__122__compressed_pair_elemIPNS_11__tree_nodeINS_12__value_typeINS_12basic_stringIcNS_11char_traitsIcEENS_9allocatorIcEEEEP6ButtonEEPvEELi0ELb0EEC2B8ne180100IRSE_vEEOT_, symObjAddr: 0x582C, symBinAddr: 0x100010AE0, symSize: 0x24 }
  - { offset: 0x72CB1, size: 0x8, addend: 0x0, symName: __ZNSt3__122__compressed_pair_elemINS_22__tree_node_destructorINS_9allocatorINS_11__tree_nodeINS_12__value_typeINS_12basic_stringIcNS_11char_traitsIcEENS2_IcEEEEP6ButtonEEPvEEEEEELi1ELb0EEC2B8ne180100ISG_vEEOT_, symObjAddr: 0x5850, symBinAddr: 0x100010B04, symSize: 0x24 }
  - { offset: 0x72CF3, size: 0x8, addend: 0x0, symName: __ZNSt3__19allocatorINS_11__tree_nodeINS_12__value_typeINS_12basic_stringIcNS_11char_traitsIcEENS0_IcEEEEP6ButtonEEPvEEE9constructB8ne180100INS_4pairIKS7_S9_EEJRKNS_21piecewise_construct_tENS_5tupleIJOS7_EEENSL_IJEEEEEEvPT_DpOT0_, symObjAddr: 0x5874, symBinAddr: 0x100010B28, symSize: 0x44 }
  - { offset: 0x72D73, size: 0x8, addend: 0x0, symName: __ZNSt3__14pairIKNS_12basic_stringIcNS_11char_traitsIcEENS_9allocatorIcEEEEP6ButtonEC1B8ne180100IJOS6_EJEEENS_21piecewise_construct_tENS_5tupleIJDpT_EEENSE_IJDpT0_EEE, symObjAddr: 0x58B8, symBinAddr: 0x100010B6C, symSize: 0x44 }
  - { offset: 0x72DDD, size: 0x8, addend: 0x0, symName: __ZNSt3__14pairIKNS_12basic_stringIcNS_11char_traitsIcEENS_9allocatorIcEEEEP6ButtonEC1B8ne180100IJOS6_EJEJLm0EETpTnmJEEENS_21piecewise_construct_tERNS_5tupleIJDpT_EEERNSE_IJDpT0_EEENS_15__tuple_indicesIJXspT1_EEEENSN_IJXspT2_EEEE, symObjAddr: 0x58FC, symBinAddr: 0x100010BB0, symSize: 0x3C }
  - { offset: 0x72E70, size: 0x8, addend: 0x0, symName: __ZNSt3__14pairIKNS_12basic_stringIcNS_11char_traitsIcEENS_9allocatorIcEEEEP6ButtonEC2B8ne180100IJOS6_EJEJLm0EETpTnmJEEENS_21piecewise_construct_tERNS_5tupleIJDpT_EEERNSE_IJDpT0_EEENS_15__tuple_indicesIJXspT1_EEEENSN_IJXspT2_EEEE, symObjAddr: 0x5938, symBinAddr: 0x100010BEC, symSize: 0x48 }
  - { offset: 0x72F03, size: 0x8, addend: 0x0, symName: __ZNKSt3__117__compressed_pairIPNS_11__tree_nodeINS_12__value_typeINS_12basic_stringIcNS_11char_traitsIcEENS_9allocatorIcEEEEP6ButtonEEPvEENS_22__tree_node_destructorINS6_ISD_EEEEE5firstB8ne180100Ev, symObjAddr: 0x5B0C, symBinAddr: 0x100010C34, symSize: 0x24 }
  - { offset: 0x72F29, size: 0x8, addend: 0x0, symName: __ZNKSt3__122__compressed_pair_elemIPNS_11__tree_nodeINS_12__value_typeINS_12basic_stringIcNS_11char_traitsIcEENS_9allocatorIcEEEEP6ButtonEEPvEELi0ELb0EE5__getB8ne180100Ev, symObjAddr: 0x5B30, symBinAddr: 0x100010C58, symSize: 0x14 }
  - { offset: 0x72F4F, size: 0x8, addend: 0x0, symName: __ZNSt3__117__compressed_pairIPNS_11__tree_nodeINS_12__value_typeINS_12basic_stringIcNS_11char_traitsIcEENS_9allocatorIcEEEEP6ButtonEEPvEENS_22__tree_node_destructorINS6_ISD_EEEEE6secondB8ne180100Ev, symObjAddr: 0x5B44, symBinAddr: 0x100010C6C, symSize: 0x28 }
  - { offset: 0x72F75, size: 0x8, addend: 0x0, symName: __ZNSt3__122__compressed_pair_elemINS_22__tree_node_destructorINS_9allocatorINS_11__tree_nodeINS_12__value_typeINS_12basic_stringIcNS_11char_traitsIcEENS2_IcEEEEP6ButtonEEPvEEEEEELi1ELb0EE5__getB8ne180100Ev, symObjAddr: 0x5B6C, symBinAddr: 0x100010C94, symSize: 0x14 }
  - { offset: 0x72F9B, size: 0x8, addend: 0x0, symName: __ZNSt3__16__treeINS_12__value_typeINS_12basic_stringIcNS_11char_traitsIcEENS_9allocatorIcEEEEP6ButtonEENS_19__map_value_compareIS7_SA_NS_4lessIS7_EELb1EEENS5_ISA_EEE12__begin_nodeB8ne180100Ev, symObjAddr: 0x5B80, symBinAddr: 0x100010CA8, symSize: 0x14 }
  - { offset: 0x72FC1, size: 0x8, addend: 0x0, symName: __ZNSt3__16__treeINS_12__value_typeINS_12basic_stringIcNS_11char_traitsIcEENS_9allocatorIcEEEEP6ButtonEENS_19__map_value_compareIS7_SA_NS_4lessIS7_EELb1EEENS5_ISA_EEE4sizeB8ne180100Ev, symObjAddr: 0x5B94, symBinAddr: 0x100010CBC, symSize: 0x28 }
  - { offset: 0x72FE7, size: 0x8, addend: 0x0, symName: __ZNSt3__117__compressed_pairImNS_19__map_value_compareINS_12basic_stringIcNS_11char_traitsIcEENS_9allocatorIcEEEENS_12__value_typeIS7_P6ButtonEENS_4lessIS7_EELb1EEEE5firstB8ne180100Ev, symObjAddr: 0x5BBC, symBinAddr: 0x100010CE4, symSize: 0x24 }
  - { offset: 0x7300D, size: 0x8, addend: 0x0, symName: __ZNSt3__117__compressed_pairIPNS_11__tree_nodeINS_12__value_typeINS_12basic_stringIcNS_11char_traitsIcEENS_9allocatorIcEEEEP6ButtonEEPvEENS_22__tree_node_destructorINS6_ISD_EEEEE5firstB8ne180100Ev, symObjAddr: 0x5BE0, symBinAddr: 0x100010D08, symSize: 0x24 }
  - { offset: 0x73033, size: 0x8, addend: 0x0, symName: __ZNSt3__122__compressed_pair_elemIPNS_11__tree_nodeINS_12__value_typeINS_12basic_stringIcNS_11char_traitsIcEENS_9allocatorIcEEEEP6ButtonEEPvEELi0ELb0EE5__getB8ne180100Ev, symObjAddr: 0x5C04, symBinAddr: 0x100010D2C, symSize: 0x14 }
  - { offset: 0x73059, size: 0x8, addend: 0x0, symName: __ZNSt3__110unique_ptrINS_11__tree_nodeINS_12__value_typeINS_12basic_stringIcNS_11char_traitsIcEENS_9allocatorIcEEEEP6ButtonEEPvEENS_22__tree_node_destructorINS6_ISD_EEEEED2B8ne180100Ev, symObjAddr: 0x5C18, symBinAddr: 0x100010D40, symSize: 0x30 }
  - { offset: 0x73083, size: 0x8, addend: 0x0, symName: __ZNSt3__110unique_ptrINS_11__tree_nodeINS_12__value_typeINS_12basic_stringIcNS_11char_traitsIcEENS_9allocatorIcEEEEP6ButtonEEPvEENS_22__tree_node_destructorINS6_ISD_EEEEE5resetB8ne180100EPSD_, symObjAddr: 0x5C48, symBinAddr: 0x100010D70, symSize: 0x70 }
  - { offset: 0x730C7, size: 0x8, addend: 0x0, symName: __ZNSt3__122__tree_node_destructorINS_9allocatorINS_11__tree_nodeINS_12__value_typeINS_12basic_stringIcNS_11char_traitsIcEENS1_IcEEEEP6ButtonEEPvEEEEEclB8ne180100EPSD_, symObjAddr: 0x5CB8, symBinAddr: 0x100010DE0, symSize: 0x90 }
  - { offset: 0x730FC, size: 0x8, addend: 0x0, symName: __ZNSt3__116allocator_traitsINS_9allocatorINS_11__tree_nodeINS_12__value_typeINS_12basic_stringIcNS_11char_traitsIcEENS1_IcEEEEP6ButtonEEPvEEEEE7destroyB8ne180100INS_4pairIKS8_SA_EEvvEEvRSE_PT_, symObjAddr: 0x5D48, symBinAddr: 0x100010E70, symSize: 0x28 }
  - { offset: 0x73137, size: 0x8, addend: 0x0, symName: __ZNSt3__116allocator_traitsINS_9allocatorINS_11__tree_nodeINS_12__value_typeINS_12basic_stringIcNS_11char_traitsIcEENS1_IcEEEEP6ButtonEEPvEEEEE10deallocateB8ne180100ERSE_PSD_m, symObjAddr: 0x5D70, symBinAddr: 0x100010E98, symSize: 0x34 }
  - { offset: 0x73179, size: 0x8, addend: 0x0, symName: __ZNSt3__14pairIKNS_12basic_stringIcNS_11char_traitsIcEENS_9allocatorIcEEEEP6ButtonED1Ev, symObjAddr: 0x5DC8, symBinAddr: 0x100010EF0, symSize: 0x2C }
  - { offset: 0x731A5, size: 0x8, addend: 0x0, symName: __ZNSt3__14pairIKNS_12basic_stringIcNS_11char_traitsIcEENS_9allocatorIcEEEEP6ButtonED2Ev, symObjAddr: 0x5DF4, symBinAddr: 0x100010F1C, symSize: 0x2C }
  - { offset: 0x731D1, size: 0x8, addend: 0x0, symName: __ZNSt3__19allocatorINS_11__tree_nodeINS_12__value_typeINS_12basic_stringIcNS_11char_traitsIcEENS0_IcEEEEP6ButtonEEPvEEE10deallocateB8ne180100EPSC_m, symObjAddr: 0x5E20, symBinAddr: 0x100010F48, symSize: 0x40 }
  - { offset: 0x73213, size: 0x8, addend: 0x0, symName: __ZNSt3__115__tree_iteratorINS_12__value_typeINS_12basic_stringIcNS_11char_traitsIcEENS_9allocatorIcEEEEP6ButtonEEPNS_11__tree_nodeISA_PvEElEC2B8ne180100ESE_, symObjAddr: 0x5E60, symBinAddr: 0x100010F88, symSize: 0x20 }
  - { offset: 0x7324C, size: 0x8, addend: 0x0, symName: __ZNSt3__14pairINS_15__tree_iteratorINS_12__value_typeINS_12basic_stringIcNS_11char_traitsIcEENS_9allocatorIcEEEEP6ButtonEEPNS_11__tree_nodeISB_PvEElEEbEC2B8ne180100ISG_RbTnNS_9enable_ifIXclsr10_CheckArgsE17__enable_implicitIT_T0_EEEiE4typeELi0EEEOSL_OSM_, symObjAddr: 0x5E80, symBinAddr: 0x100010FA8, symSize: 0x38 }
  - { offset: 0x732AA, size: 0x8, addend: 0x0, symName: __ZNSt3__114pointer_traitsIPNS_12__value_typeINS_12basic_stringIcNS_11char_traitsIcEENS_9allocatorIcEEEEP6ButtonEEE10pointer_toB8ne180100ERSA_, symObjAddr: 0x5FA8, symBinAddr: 0x100010FE0, symSize: 0x14 }
  - { offset: 0x732CD, size: 0x8, addend: 0x0, symName: __ZNKSt3__115__tree_iteratorINS_12__value_typeINS_12basic_stringIcNS_11char_traitsIcEENS_9allocatorIcEEEEP6ButtonEEPNS_11__tree_nodeISA_PvEElE8__get_npB8ne180100Ev, symObjAddr: 0x5FBC, symBinAddr: 0x100010FF4, symSize: 0x18 }
  - { offset: 0x732F3, size: 0x8, addend: 0x0, symName: __ZNSt3__13mapINS_12basic_stringIcNS_11char_traitsIcEENS_9allocatorIcEEEEP6ButtonNS_4lessIS6_EENS4_INS_4pairIKS6_S8_EEEEEC2B8ne180100Ev, symObjAddr: 0x600C, symBinAddr: 0x100011044, symSize: 0x40 }
  - { offset: 0x7331D, size: 0x8, addend: 0x0, symName: __ZNSt3__119__map_value_compareINS_12basic_stringIcNS_11char_traitsIcEENS_9allocatorIcEEEENS_12__value_typeIS6_P6ButtonEENS_4lessIS6_EELb1EEC1B8ne180100ESC_, symObjAddr: 0x604C, symBinAddr: 0x100011084, symSize: 0x2C }
  - { offset: 0x73356, size: 0x8, addend: 0x0, symName: __ZNSt3__16__treeINS_12__value_typeINS_12basic_stringIcNS_11char_traitsIcEENS_9allocatorIcEEEEP6ButtonEENS_19__map_value_compareIS7_SA_NS_4lessIS7_EELb1EEENS5_ISA_EEEC1ERKSE_, symObjAddr: 0x6078, symBinAddr: 0x1000110B0, symSize: 0x34 }
  - { offset: 0x73391, size: 0x8, addend: 0x0, symName: __ZNSt3__119__map_value_compareINS_12basic_stringIcNS_11char_traitsIcEENS_9allocatorIcEEEENS_12__value_typeIS6_P6ButtonEENS_4lessIS6_EELb1EEC2B8ne180100ESC_, symObjAddr: 0x60AC, symBinAddr: 0x1000110E4, symSize: 0x14 }
  - { offset: 0x733CA, size: 0x8, addend: 0x0, symName: __ZNSt3__16__treeINS_12__value_typeINS_12basic_stringIcNS_11char_traitsIcEENS_9allocatorIcEEEEP6ButtonEENS_19__map_value_compareIS7_SA_NS_4lessIS7_EELb1EEENS5_ISA_EEEC2ERKSE_, symObjAddr: 0x60C0, symBinAddr: 0x1000110F8, symSize: 0x7C }
  - { offset: 0x73405, size: 0x8, addend: 0x0, symName: __ZNSt3__117__compressed_pairINS_15__tree_end_nodeIPNS_16__tree_node_baseIPvEEEENS_9allocatorINS_11__tree_nodeINS_12__value_typeINS_12basic_stringIcNS_11char_traitsIcEENS7_IcEEEEP6ButtonEES3_EEEEEC1B8ne180100ILb1EvEEv, symObjAddr: 0x613C, symBinAddr: 0x100011174, symSize: 0x2C }
  - { offset: 0x7343F, size: 0x8, addend: 0x0, symName: __ZNSt3__117__compressed_pairImNS_19__map_value_compareINS_12basic_stringIcNS_11char_traitsIcEENS_9allocatorIcEEEENS_12__value_typeIS7_P6ButtonEENS_4lessIS7_EELb1EEEEC1B8ne180100IiRKSE_EEOT_OT0_, symObjAddr: 0x6168, symBinAddr: 0x1000111A0, symSize: 0x3C }
  - { offset: 0x73497, size: 0x8, addend: 0x0, symName: __ZNSt3__117__compressed_pairINS_15__tree_end_nodeIPNS_16__tree_node_baseIPvEEEENS_9allocatorINS_11__tree_nodeINS_12__value_typeINS_12basic_stringIcNS_11char_traitsIcEENS7_IcEEEEP6ButtonEES3_EEEEEC2B8ne180100ILb1EvEEv, symObjAddr: 0x61A4, symBinAddr: 0x1000111DC, symSize: 0x34 }
  - { offset: 0x734CC, size: 0x8, addend: 0x0, symName: __ZNSt3__122__compressed_pair_elemINS_9allocatorINS_11__tree_nodeINS_12__value_typeINS_12basic_stringIcNS_11char_traitsIcEENS1_IcEEEEP6ButtonEEPvEEEELi1ELb1EEC2B8ne180100ENS_16__value_init_tagE, symObjAddr: 0x6204, symBinAddr: 0x100011210, symSize: 0x2C }
  - { offset: 0x73501, size: 0x8, addend: 0x0, symName: __ZNSt3__19allocatorINS_11__tree_nodeINS_12__value_typeINS_12basic_stringIcNS_11char_traitsIcEENS0_IcEEEEP6ButtonEEPvEEEC2B8ne180100Ev, symObjAddr: 0x6274, symBinAddr: 0x10001123C, symSize: 0x2C }
  - { offset: 0x7352B, size: 0x8, addend: 0x0, symName: __ZNSt3__116__non_trivial_ifILb1ENS_9allocatorINS_11__tree_nodeINS_12__value_typeINS_12basic_stringIcNS_11char_traitsIcEENS1_IcEEEEP6ButtonEEPvEEEEEC2B8ne180100Ev, symObjAddr: 0x62A0, symBinAddr: 0x100011268, symSize: 0x14 }
  - { offset: 0x73555, size: 0x8, addend: 0x0, symName: __ZNSt3__117__compressed_pairImNS_19__map_value_compareINS_12basic_stringIcNS_11char_traitsIcEENS_9allocatorIcEEEENS_12__value_typeIS7_P6ButtonEENS_4lessIS7_EELb1EEEEC2B8ne180100IiRKSE_EEOT_OT0_, symObjAddr: 0x62B4, symBinAddr: 0x10001127C, symSize: 0x44 }
  - { offset: 0x735AD, size: 0x8, addend: 0x0, symName: __ZNSt3__122__compressed_pair_elemINS_19__map_value_compareINS_12basic_stringIcNS_11char_traitsIcEENS_9allocatorIcEEEENS_12__value_typeIS7_P6ButtonEENS_4lessIS7_EELb1EEELi1ELb1EEC2B8ne180100IRKSE_vEEOT_, symObjAddr: 0x631C, symBinAddr: 0x1000112C0, symSize: 0x18 }
  - { offset: 0x735EF, size: 0x8, addend: 0x0, symName: __ZNSt3__13mapINS_12basic_stringIcNS_11char_traitsIcEENS_9allocatorIcEEEEP6ButtonNS_4lessIS6_EENS4_INS_4pairIKS6_S8_EEEEED2B8ne180100Ev, symObjAddr: 0x6334, symBinAddr: 0x1000112D8, symSize: 0x2C }
  - { offset: 0x73619, size: 0x8, addend: 0x0, symName: __ZNSt3__16__treeINS_12__value_typeINS_12basic_stringIcNS_11char_traitsIcEENS_9allocatorIcEEEEP6ButtonEENS_19__map_value_compareIS7_SA_NS_4lessIS7_EELb1EEENS5_ISA_EEED1Ev, symObjAddr: 0x6360, symBinAddr: 0x100011304, symSize: 0x2C }
  - { offset: 0x73645, size: 0x8, addend: 0x0, symName: __ZNSt3__16__treeINS_12__value_typeINS_12basic_stringIcNS_11char_traitsIcEENS_9allocatorIcEEEEP6ButtonEENS_19__map_value_compareIS7_SA_NS_4lessIS7_EELb1EEENS5_ISA_EEED2Ev, symObjAddr: 0x638C, symBinAddr: 0x100011330, symSize: 0x38 }
  - { offset: 0x73671, size: 0x8, addend: 0x0, symName: __ZNSt3__16__treeINS_12__value_typeINS_12basic_stringIcNS_11char_traitsIcEENS_9allocatorIcEEEEP6ButtonEENS_19__map_value_compareIS7_SA_NS_4lessIS7_EELb1EEENS5_ISA_EEE7destroyEPNS_11__tree_nodeISA_PvEE, symObjAddr: 0x63C4, symBinAddr: 0x100011368, symSize: 0xA4 }
  - { offset: 0x736BE, size: 0x8, addend: 0x0, symName: __ZNSt3__16__treeINS_12__value_typeINS_12basic_stringIcNS_11char_traitsIcEENS_9allocatorIcEEEEP6ButtonEENS_19__map_value_compareIS7_SA_NS_4lessIS7_EELb1EEENS5_ISA_EEE5beginB8ne180100Ev, symObjAddr: 0x6468, symBinAddr: 0x10001140C, symSize: 0x34 }
  - { offset: 0x736E4, size: 0x8, addend: 0x0, symName: __ZNSt3__114__map_iteratorINS_15__tree_iteratorINS_12__value_typeINS_12basic_stringIcNS_11char_traitsIcEENS_9allocatorIcEEEEP6ButtonEEPNS_11__tree_nodeISB_PvEElEEEC1B8ne180100ESG_, symObjAddr: 0x649C, symBinAddr: 0x100011440, symSize: 0x34 }
  - { offset: 0x7371D, size: 0x8, addend: 0x0, symName: __ZNSt3__115__tree_iteratorINS_12__value_typeINS_12basic_stringIcNS_11char_traitsIcEENS_9allocatorIcEEEEP6ButtonEEPNS_11__tree_nodeISA_PvEElEC1B8ne180100EPNS_15__tree_end_nodeIPNS_16__tree_node_baseISC_EEEE, symObjAddr: 0x64D0, symBinAddr: 0x100011474, symSize: 0x34 }
  - { offset: 0x73756, size: 0x8, addend: 0x0, symName: __ZNSt3__115__tree_iteratorINS_12__value_typeINS_12basic_stringIcNS_11char_traitsIcEENS_9allocatorIcEEEEP6ButtonEEPNS_11__tree_nodeISA_PvEElEC2B8ne180100EPNS_15__tree_end_nodeIPNS_16__tree_node_baseISC_EEEE, symObjAddr: 0x6504, symBinAddr: 0x1000114A8, symSize: 0x20 }
  - { offset: 0x7378F, size: 0x8, addend: 0x0, symName: __ZNSt3__114__map_iteratorINS_15__tree_iteratorINS_12__value_typeINS_12basic_stringIcNS_11char_traitsIcEENS_9allocatorIcEEEEP6ButtonEEPNS_11__tree_nodeISB_PvEElEEEC2B8ne180100ESG_, symObjAddr: 0x6524, symBinAddr: 0x1000114C8, symSize: 0x20 }
  - { offset: 0x737C8, size: 0x8, addend: 0x0, symName: __ZNSt3__16__treeINS_12__value_typeINS_12basic_stringIcNS_11char_traitsIcEENS_9allocatorIcEEEEP6ButtonEENS_19__map_value_compareIS7_SA_NS_4lessIS7_EELb1EEENS5_ISA_EEE3endB8ne180100Ev, symObjAddr: 0x6544, symBinAddr: 0x1000114E8, symSize: 0x34 }
  - { offset: 0x737EE, size: 0x8, addend: 0x0, symName: __ZNSt3__115__tree_iteratorINS_12__value_typeINS_12basic_stringIcNS_11char_traitsIcEENS_9allocatorIcEEEEP6ButtonEEPNS_11__tree_nodeISA_PvEElEppB8ne180100Ev, symObjAddr: 0x65D4, symBinAddr: 0x100011578, symSize: 0x38 }
  - { offset: 0x73814, size: 0x8, addend: 0x0, symName: __ZNSt3__114pointer_traitsIPNS_4pairIKNS_12basic_stringIcNS_11char_traitsIcEENS_9allocatorIcEEEEP6ButtonEEE10pointer_toB8ne180100ERSB_, symObjAddr: 0x9500, symBinAddr: 0x1000115B0, symSize: 0x14 }
  - { offset: 0x815A1, size: 0x8, addend: 0x0, symName: __ZNSt3__112__to_addressB8ne180100IN2sf6VertexEEEPT_S4_, symObjAddr: 0x108C, symBinAddr: 0x1000121F0, symSize: 0x14 }
  - { offset: 0x81663, size: 0x8, addend: 0x0, symName: __ZNSt3__112__destroy_atB8ne180100INS_4pairIKNS_12basic_stringIcNS_11char_traitsIcEENS_9allocatorIcEEEEN2sf7Vector2IfEEEETnNS_9enable_ifIXntsr8is_arrayIT_EE5valueEiE4typeELi0EEEvPSE_, symObjAddr: 0x17F4, symBinAddr: 0x100012870, symSize: 0x24 }
  - { offset: 0x8169A, size: 0x8, addend: 0x0, symName: __ZNSt3__17launderB8ne180100INS_4pairIKNS_12basic_stringIcNS_11char_traitsIcEENS_9allocatorIcEEEEN2sf7Vector2IfEEEEEEPT_SE_, symObjAddr: 0x1894, symBinAddr: 0x100012910, symSize: 0x24 }
  - { offset: 0x816D1, size: 0x8, addend: 0x0, symName: __ZNSt3__19__launderB8ne180100INS_4pairIKNS_12basic_stringIcNS_11char_traitsIcEENS_9allocatorIcEEEEN2sf7Vector2IfEEEEEEPT_SE_, symObjAddr: 0x18B8, symBinAddr: 0x100012934, symSize: 0x14 }
  - { offset: 0x81709, size: 0x8, addend: 0x0, symName: __ZNSt3__13minB8ne180100IfEERKT_S3_S3_, symObjAddr: 0x1AA8, symBinAddr: 0x100012B10, symSize: 0x2C }
  - { offset: 0x8174D, size: 0x8, addend: 0x0, symName: __ZNSt3__13maxB8ne180100IfEERKT_S3_S3_, symObjAddr: 0x1AD4, symBinAddr: 0x100012B3C, symSize: 0x2C }
  - { offset: 0x81791, size: 0x8, addend: 0x0, symName: __ZNSt3__13minB8ne180100IfNS_6__lessIvvEEEERKT_S5_S5_T0_, symObjAddr: 0x1B00, symBinAddr: 0x100012B68, symSize: 0x54 }
  - { offset: 0x81833, size: 0x8, addend: 0x0, symName: __ZNSt3__13maxB8ne180100IfNS_6__lessIvvEEEERKT_S5_S5_T0_, symObjAddr: 0x1B84, symBinAddr: 0x100012BEC, symSize: 0x54 }
  - { offset: 0x82FE1, size: 0x8, addend: 0x0, symName: __ZN6ButtonC2ERN2sf7Vector2IfEES3_PNS0_4FontENSt3__112basic_stringIcNS6_11char_traitsIcEENS6_9allocatorIcEEEENS0_5ColorESD_SD_SD_SD_SD_, symObjAddr: 0x0, symBinAddr: 0x1000115C4, symSize: 0x418 }
  - { offset: 0x830A2, size: 0x8, addend: 0x0, symName: __ZNSt3__13mapINS_12basic_stringIcNS_11char_traitsIcEENS_9allocatorIcEEEEN2sf7Vector2IfEENS_4lessIS6_EENS4_INS_4pairIKS6_S9_EEEEEC1B8ne180100Ev, symObjAddr: 0x454, symBinAddr: 0x1000119DC, symSize: 0x2C }
  - { offset: 0x830CC, size: 0x8, addend: 0x0, symName: __ZNSt3__13mapINS_12basic_stringIcNS_11char_traitsIcEENS_9allocatorIcEEEEN2sf7Vector2IfEENS_4lessIS6_EENS4_INS_4pairIKS6_S9_EEEEED1B8ne180100Ev, symObjAddr: 0x4AC, symBinAddr: 0x100011A08, symSize: 0x2C }
  - { offset: 0x830F6, size: 0x8, addend: 0x0, symName: __ZN2sf4TextD1Ev, symObjAddr: 0x4D8, symBinAddr: 0x100011A34, symSize: 0x2C }
  - { offset: 0x83122, size: 0x8, addend: 0x0, symName: __ZN2sf14RectangleShapeD1Ev, symObjAddr: 0x504, symBinAddr: 0x100011A60, symSize: 0x2C }
  - { offset: 0x8314E, size: 0x8, addend: 0x0, symName: __ZN6ButtonC1ERN2sf7Vector2IfEES3_PNS0_4FontENSt3__112basic_stringIcNS6_11char_traitsIcEENS6_9allocatorIcEEEENS0_5ColorESD_SD_SD_SD_SD_, symObjAddr: 0x530, symBinAddr: 0x100011A8C, symSize: 0x100 }
  - { offset: 0x8320F, size: 0x8, addend: 0x0, symName: __ZNK6Button9isPressedEv, symObjAddr: 0x630, symBinAddr: 0x100011B8C, symSize: 0x54 }
  - { offset: 0x83237, size: 0x8, addend: 0x0, symName: __ZN6Button12updateButtonEN2sf7Vector2IfEE, symObjAddr: 0x684, symBinAddr: 0x100011BE0, symSize: 0x138 }
  - { offset: 0x8326D, size: 0x8, addend: 0x0, symName: __ZNK2sf4RectIfE8containsERKNS_7Vector2IfEE, symObjAddr: 0x7BC, symBinAddr: 0x100011D18, symSize: 0x38 }
  - { offset: 0x832A3, size: 0x8, addend: 0x0, symName: __ZN6Button10drawButtonEPN2sf12RenderTargetE, symObjAddr: 0x7F4, symBinAddr: 0x100011D50, symSize: 0x54 }
  - { offset: 0x832D9, size: 0x8, addend: 0x0, symName: __ZN6ButtonD2Ev, symObjAddr: 0x848, symBinAddr: 0x100011DA4, symSize: 0x48 }
  - { offset: 0x83305, size: 0x8, addend: 0x0, symName: __ZN6ButtonD1Ev, symObjAddr: 0x890, symBinAddr: 0x100011DEC, symSize: 0x2C }
  - { offset: 0x83331, size: 0x8, addend: 0x0, symName: __ZN2sf4TextD2Ev, symObjAddr: 0xCA0, symBinAddr: 0x100011E18, symSize: 0x74 }
  - { offset: 0x8335D, size: 0x8, addend: 0x0, symName: __ZThn8_N2sf4TextD1Ev, symObjAddr: 0xD14, symBinAddr: 0x100011E8C, symSize: 0x1C }
  - { offset: 0x83373, size: 0x8, addend: 0x0, symName: __ZN2sf11VertexArrayD1Ev, symObjAddr: 0xD30, symBinAddr: 0x100011EA8, symSize: 0x2C }
  - { offset: 0x8339F, size: 0x8, addend: 0x0, symName: __ZN2sf11VertexArrayD2Ev, symObjAddr: 0xD70, symBinAddr: 0x100011ED4, symSize: 0x48 }
  - { offset: 0x833CB, size: 0x8, addend: 0x0, symName: __ZNSt3__16vectorIN2sf6VertexENS_9allocatorIS2_EEED1B8ne180100Ev, symObjAddr: 0xDB8, symBinAddr: 0x100011F1C, symSize: 0x2C }
  - { offset: 0x833F5, size: 0x8, addend: 0x0, symName: __ZNSt3__16vectorIN2sf6VertexENS_9allocatorIS2_EEED2B8ne180100Ev, symObjAddr: 0xDE4, symBinAddr: 0x100011F48, symSize: 0x44 }
  - { offset: 0x8341F, size: 0x8, addend: 0x0, symName: __ZNSt3__16vectorIN2sf6VertexENS_9allocatorIS2_EEE16__destroy_vectorC1B8ne180100ERS5_, symObjAddr: 0xE28, symBinAddr: 0x100011F8C, symSize: 0x34 }
  - { offset: 0x83458, size: 0x8, addend: 0x0, symName: __ZNSt3__16vectorIN2sf6VertexENS_9allocatorIS2_EEE16__destroy_vectorclB8ne180100Ev, symObjAddr: 0xE5C, symBinAddr: 0x100011FC0, symSize: 0x88 }
  - { offset: 0x8347E, size: 0x8, addend: 0x0, symName: __ZNSt3__16vectorIN2sf6VertexENS_9allocatorIS2_EEE16__destroy_vectorC2B8ne180100ERS5_, symObjAddr: 0xEE4, symBinAddr: 0x100012048, symSize: 0x20 }
  - { offset: 0x834B7, size: 0x8, addend: 0x0, symName: __ZNSt3__16vectorIN2sf6VertexENS_9allocatorIS2_EEE7__clearB8ne180100Ev, symObjAddr: 0xF04, symBinAddr: 0x100012068, symSize: 0x28 }
  - { offset: 0x834DD, size: 0x8, addend: 0x0, symName: __ZNKSt3__16vectorIN2sf6VertexENS_9allocatorIS2_EEE17__annotate_deleteB8ne180100Ev, symObjAddr: 0xF2C, symBinAddr: 0x100012090, symSize: 0x10 }
  - { offset: 0x83503, size: 0x8, addend: 0x0, symName: __ZNSt3__116allocator_traitsINS_9allocatorIN2sf6VertexEEEE10deallocateB8ne180100ERS4_PS3_m, symObjAddr: 0xF3C, symBinAddr: 0x1000120A0, symSize: 0x34 }
  - { offset: 0x83545, size: 0x8, addend: 0x0, symName: __ZNSt3__16vectorIN2sf6VertexENS_9allocatorIS2_EEE7__allocB8ne180100Ev, symObjAddr: 0xF70, symBinAddr: 0x1000120D4, symSize: 0x28 }
  - { offset: 0x8356B, size: 0x8, addend: 0x0, symName: __ZNKSt3__16vectorIN2sf6VertexENS_9allocatorIS2_EEE8capacityB8ne180100Ev, symObjAddr: 0xF98, symBinAddr: 0x1000120FC, symSize: 0x40 }
  - { offset: 0x83591, size: 0x8, addend: 0x0, symName: __ZNSt3__16vectorIN2sf6VertexENS_9allocatorIS2_EEE22__base_destruct_at_endB8ne180100EPS2_, symObjAddr: 0xFD8, symBinAddr: 0x10001213C, symSize: 0x88 }
  - { offset: 0x835D5, size: 0x8, addend: 0x0, symName: __ZNSt3__116allocator_traitsINS_9allocatorIN2sf6VertexEEEE7destroyB8ne180100IS3_vEEvRS4_PT_, symObjAddr: 0x1060, symBinAddr: 0x1000121C4, symSize: 0x2C }
  - { offset: 0x83612, size: 0x8, addend: 0x0, symName: __ZNSt3__19allocatorIN2sf6VertexEE7destroyB8ne180100EPS2_, symObjAddr: 0x10A0, symBinAddr: 0x100012204, symSize: 0x14 }
  - { offset: 0x83646, size: 0x8, addend: 0x0, symName: __ZNSt3__19allocatorIN2sf6VertexEE10deallocateB8ne180100EPS2_m, symObjAddr: 0x10B4, symBinAddr: 0x100012218, symSize: 0x44 }
  - { offset: 0x83688, size: 0x8, addend: 0x0, symName: __ZNSt3__117__compressed_pairIPN2sf6VertexENS_9allocatorIS2_EEE6secondB8ne180100Ev, symObjAddr: 0x10F8, symBinAddr: 0x10001225C, symSize: 0x24 }
  - { offset: 0x836AE, size: 0x8, addend: 0x0, symName: __ZNSt3__122__compressed_pair_elemINS_9allocatorIN2sf6VertexEEELi1ELb1EE5__getB8ne180100Ev, symObjAddr: 0x111C, symBinAddr: 0x100012280, symSize: 0x14 }
  - { offset: 0x836D4, size: 0x8, addend: 0x0, symName: __ZNKSt3__16vectorIN2sf6VertexENS_9allocatorIS2_EEE9__end_capB8ne180100Ev, symObjAddr: 0x1130, symBinAddr: 0x100012294, symSize: 0x28 }
  - { offset: 0x836FA, size: 0x8, addend: 0x0, symName: __ZNKSt3__117__compressed_pairIPN2sf6VertexENS_9allocatorIS2_EEE5firstB8ne180100Ev, symObjAddr: 0x1158, symBinAddr: 0x1000122BC, symSize: 0x24 }
  - { offset: 0x83720, size: 0x8, addend: 0x0, symName: __ZNKSt3__122__compressed_pair_elemIPN2sf6VertexELi0ELb0EE5__getB8ne180100Ev, symObjAddr: 0x117C, symBinAddr: 0x1000122E0, symSize: 0x14 }
  - { offset: 0x83746, size: 0x8, addend: 0x0, symName: __ZN2sf14RectangleShapeD2Ev, symObjAddr: 0x1190, symBinAddr: 0x1000122F4, symSize: 0x2C }
  - { offset: 0x83772, size: 0x8, addend: 0x0, symName: __ZThn8_N2sf14RectangleShapeD1Ev, symObjAddr: 0x11BC, symBinAddr: 0x100012320, symSize: 0x1C }
  - { offset: 0x83788, size: 0x8, addend: 0x0, symName: __ZNSt3__13mapINS_12basic_stringIcNS_11char_traitsIcEENS_9allocatorIcEEEEN2sf7Vector2IfEENS_4lessIS6_EENS4_INS_4pairIKS6_S9_EEEEEC2B8ne180100Ev, symObjAddr: 0x1204, symBinAddr: 0x10001233C, symSize: 0x40 }
  - { offset: 0x837B2, size: 0x8, addend: 0x0, symName: __ZNSt3__119__map_value_compareINS_12basic_stringIcNS_11char_traitsIcEENS_9allocatorIcEEEENS_12__value_typeIS6_N2sf7Vector2IfEEEENS_4lessIS6_EELb1EEC1B8ne180100ESD_, symObjAddr: 0x1244, symBinAddr: 0x10001237C, symSize: 0x2C }
  - { offset: 0x837EB, size: 0x8, addend: 0x0, symName: __ZNSt3__16__treeINS_12__value_typeINS_12basic_stringIcNS_11char_traitsIcEENS_9allocatorIcEEEEN2sf7Vector2IfEEEENS_19__map_value_compareIS7_SB_NS_4lessIS7_EELb1EEENS5_ISB_EEEC1ERKSF_, symObjAddr: 0x1270, symBinAddr: 0x1000123A8, symSize: 0x34 }
  - { offset: 0x83826, size: 0x8, addend: 0x0, symName: __ZNSt3__119__map_value_compareINS_12basic_stringIcNS_11char_traitsIcEENS_9allocatorIcEEEENS_12__value_typeIS6_N2sf7Vector2IfEEEENS_4lessIS6_EELb1EEC2B8ne180100ESD_, symObjAddr: 0x12A4, symBinAddr: 0x1000123DC, symSize: 0x14 }
  - { offset: 0x8385F, size: 0x8, addend: 0x0, symName: __ZNSt3__16__treeINS_12__value_typeINS_12basic_stringIcNS_11char_traitsIcEENS_9allocatorIcEEEEN2sf7Vector2IfEEEENS_19__map_value_compareIS7_SB_NS_4lessIS7_EELb1EEENS5_ISB_EEEC2ERKSF_, symObjAddr: 0x12B8, symBinAddr: 0x1000123F0, symSize: 0x7C }
  - { offset: 0x8389A, size: 0x8, addend: 0x0, symName: __ZNSt3__117__compressed_pairINS_15__tree_end_nodeIPNS_16__tree_node_baseIPvEEEENS_9allocatorINS_11__tree_nodeINS_12__value_typeINS_12basic_stringIcNS_11char_traitsIcEENS7_IcEEEEN2sf7Vector2IfEEEES3_EEEEEC1B8ne180100ILb1EvEEv, symObjAddr: 0x1334, symBinAddr: 0x10001246C, symSize: 0x2C }
  - { offset: 0x838D4, size: 0x8, addend: 0x0, symName: __ZNSt3__117__compressed_pairImNS_19__map_value_compareINS_12basic_stringIcNS_11char_traitsIcEENS_9allocatorIcEEEENS_12__value_typeIS7_N2sf7Vector2IfEEEENS_4lessIS7_EELb1EEEEC1B8ne180100IiRKSF_EEOT_OT0_, symObjAddr: 0x1360, symBinAddr: 0x100012498, symSize: 0x3C }
  - { offset: 0x8392C, size: 0x8, addend: 0x0, symName: __ZNSt3__16__treeINS_12__value_typeINS_12basic_stringIcNS_11char_traitsIcEENS_9allocatorIcEEEEN2sf7Vector2IfEEEENS_19__map_value_compareIS7_SB_NS_4lessIS7_EELb1EEENS5_ISB_EEE10__end_nodeB8ne180100Ev, symObjAddr: 0x139C, symBinAddr: 0x1000124D4, symSize: 0x2C }
  - { offset: 0x83952, size: 0x8, addend: 0x0, symName: __ZNSt3__16__treeINS_12__value_typeINS_12basic_stringIcNS_11char_traitsIcEENS_9allocatorIcEEEEN2sf7Vector2IfEEEENS_19__map_value_compareIS7_SB_NS_4lessIS7_EELb1EEENS5_ISB_EEE12__begin_nodeB8ne180100Ev, symObjAddr: 0x13C8, symBinAddr: 0x100012500, symSize: 0x14 }
  - { offset: 0x83978, size: 0x8, addend: 0x0, symName: __ZNSt3__117__compressed_pairINS_15__tree_end_nodeIPNS_16__tree_node_baseIPvEEEENS_9allocatorINS_11__tree_nodeINS_12__value_typeINS_12basic_stringIcNS_11char_traitsIcEENS7_IcEEEEN2sf7Vector2IfEEEES3_EEEEEC2B8ne180100ILb1EvEEv, symObjAddr: 0x13DC, symBinAddr: 0x100012514, symSize: 0x34 }
  - { offset: 0x839AD, size: 0x8, addend: 0x0, symName: __ZNSt3__122__compressed_pair_elemINS_9allocatorINS_11__tree_nodeINS_12__value_typeINS_12basic_stringIcNS_11char_traitsIcEENS1_IcEEEEN2sf7Vector2IfEEEEPvEEEELi1ELb1EEC2B8ne180100ENS_16__value_init_tagE, symObjAddr: 0x143C, symBinAddr: 0x100012548, symSize: 0x2C }
  - { offset: 0x839E2, size: 0x8, addend: 0x0, symName: __ZNSt3__19allocatorINS_11__tree_nodeINS_12__value_typeINS_12basic_stringIcNS_11char_traitsIcEENS0_IcEEEEN2sf7Vector2IfEEEEPvEEEC2B8ne180100Ev, symObjAddr: 0x14AC, symBinAddr: 0x100012574, symSize: 0x2C }
  - { offset: 0x83A0C, size: 0x8, addend: 0x0, symName: __ZNSt3__116__non_trivial_ifILb1ENS_9allocatorINS_11__tree_nodeINS_12__value_typeINS_12basic_stringIcNS_11char_traitsIcEENS1_IcEEEEN2sf7Vector2IfEEEEPvEEEEEC2B8ne180100Ev, symObjAddr: 0x14D8, symBinAddr: 0x1000125A0, symSize: 0x14 }
  - { offset: 0x83A36, size: 0x8, addend: 0x0, symName: __ZNSt3__117__compressed_pairImNS_19__map_value_compareINS_12basic_stringIcNS_11char_traitsIcEENS_9allocatorIcEEEENS_12__value_typeIS7_N2sf7Vector2IfEEEENS_4lessIS7_EELb1EEEEC2B8ne180100IiRKSF_EEOT_OT0_, symObjAddr: 0x14EC, symBinAddr: 0x1000125B4, symSize: 0x44 }
  - { offset: 0x83A8E, size: 0x8, addend: 0x0, symName: __ZNSt3__122__compressed_pair_elemINS_19__map_value_compareINS_12basic_stringIcNS_11char_traitsIcEENS_9allocatorIcEEEENS_12__value_typeIS7_N2sf7Vector2IfEEEENS_4lessIS7_EELb1EEELi1ELb1EEC2B8ne180100IRKSF_vEEOT_, symObjAddr: 0x1554, symBinAddr: 0x1000125F8, symSize: 0x18 }
  - { offset: 0x83AD0, size: 0x8, addend: 0x0, symName: __ZNSt3__117__compressed_pairINS_15__tree_end_nodeIPNS_16__tree_node_baseIPvEEEENS_9allocatorINS_11__tree_nodeINS_12__value_typeINS_12basic_stringIcNS_11char_traitsIcEENS7_IcEEEEN2sf7Vector2IfEEEES3_EEEEE5firstB8ne180100Ev, symObjAddr: 0x1580, symBinAddr: 0x100012610, symSize: 0x24 }
  - { offset: 0x83AF6, size: 0x8, addend: 0x0, symName: __ZNSt3__13mapINS_12basic_stringIcNS_11char_traitsIcEENS_9allocatorIcEEEEN2sf7Vector2IfEENS_4lessIS6_EENS4_INS_4pairIKS6_S9_EEEEED2B8ne180100Ev, symObjAddr: 0x15B8, symBinAddr: 0x100012634, symSize: 0x2C }
  - { offset: 0x83B20, size: 0x8, addend: 0x0, symName: __ZNSt3__16__treeINS_12__value_typeINS_12basic_stringIcNS_11char_traitsIcEENS_9allocatorIcEEEEN2sf7Vector2IfEEEENS_19__map_value_compareIS7_SB_NS_4lessIS7_EELb1EEENS5_ISB_EEED1Ev, symObjAddr: 0x15E4, symBinAddr: 0x100012660, symSize: 0x2C }
  - { offset: 0x83B4C, size: 0x8, addend: 0x0, symName: __ZNSt3__16__treeINS_12__value_typeINS_12basic_stringIcNS_11char_traitsIcEENS_9allocatorIcEEEEN2sf7Vector2IfEEEENS_19__map_value_compareIS7_SB_NS_4lessIS7_EELb1EEENS5_ISB_EEED2Ev, symObjAddr: 0x1610, symBinAddr: 0x10001268C, symSize: 0x38 }
  - { offset: 0x83B78, size: 0x8, addend: 0x0, symName: __ZNSt3__16__treeINS_12__value_typeINS_12basic_stringIcNS_11char_traitsIcEENS_9allocatorIcEEEEN2sf7Vector2IfEEEENS_19__map_value_compareIS7_SB_NS_4lessIS7_EELb1EEENS5_ISB_EEE7destroyEPNS_11__tree_nodeISB_PvEE, symObjAddr: 0x1648, symBinAddr: 0x1000126C4, symSize: 0xA4 }
  - { offset: 0x83BC5, size: 0x8, addend: 0x0, symName: __ZNKSt3__16__treeINS_12__value_typeINS_12basic_stringIcNS_11char_traitsIcEENS_9allocatorIcEEEEN2sf7Vector2IfEEEENS_19__map_value_compareIS7_SB_NS_4lessIS7_EELb1EEENS5_ISB_EEE6__rootB8ne180100Ev, symObjAddr: 0x16EC, symBinAddr: 0x100012768, symSize: 0x28 }
  - { offset: 0x83BEB, size: 0x8, addend: 0x0, symName: __ZNSt3__16__treeINS_12__value_typeINS_12basic_stringIcNS_11char_traitsIcEENS_9allocatorIcEEEEN2sf7Vector2IfEEEENS_19__map_value_compareIS7_SB_NS_4lessIS7_EELb1EEENS5_ISB_EEE12__node_allocB8ne180100Ev, symObjAddr: 0x1714, symBinAddr: 0x100012790, symSize: 0x28 }
  - { offset: 0x83C16, size: 0x8, addend: 0x0, symName: __ZNSt3__116allocator_traitsINS_9allocatorINS_11__tree_nodeINS_12__value_typeINS_12basic_stringIcNS_11char_traitsIcEENS1_IcEEEEN2sf7Vector2IfEEEEPvEEEEE7destroyB8ne180100INS_4pairIKS8_SB_EEvvEEvRSF_PT_, symObjAddr: 0x173C, symBinAddr: 0x1000127B8, symSize: 0x28 }
  - { offset: 0x83C51, size: 0x8, addend: 0x0, symName: __ZNSt3__122__tree_key_value_typesINS_12__value_typeINS_12basic_stringIcNS_11char_traitsIcEENS_9allocatorIcEEEEN2sf7Vector2IfEEEEE9__get_ptrB8ne180100ERSB_, symObjAddr: 0x1764, symBinAddr: 0x1000127E0, symSize: 0x24 }
  - { offset: 0x83C75, size: 0x8, addend: 0x0, symName: __ZNSt3__116allocator_traitsINS_9allocatorINS_11__tree_nodeINS_12__value_typeINS_12basic_stringIcNS_11char_traitsIcEENS1_IcEEEEN2sf7Vector2IfEEEEPvEEEEE10deallocateB8ne180100ERSF_PSE_m, symObjAddr: 0x1788, symBinAddr: 0x100012804, symSize: 0x34 }
  - { offset: 0x83CB7, size: 0x8, addend: 0x0, symName: __ZNSt3__117__compressed_pairINS_15__tree_end_nodeIPNS_16__tree_node_baseIPvEEEENS_9allocatorINS_11__tree_nodeINS_12__value_typeINS_12basic_stringIcNS_11char_traitsIcEENS7_IcEEEEN2sf7Vector2IfEEEES3_EEEEE6secondB8ne180100Ev, symObjAddr: 0x17BC, symBinAddr: 0x100012838, symSize: 0x24 }
  - { offset: 0x83CDD, size: 0x8, addend: 0x0, symName: __ZNSt3__122__compressed_pair_elemINS_9allocatorINS_11__tree_nodeINS_12__value_typeINS_12basic_stringIcNS_11char_traitsIcEENS1_IcEEEEN2sf7Vector2IfEEEEPvEEEELi1ELb1EE5__getB8ne180100Ev, symObjAddr: 0x17E0, symBinAddr: 0x10001285C, symSize: 0x14 }
  - { offset: 0x83D03, size: 0x8, addend: 0x0, symName: __ZNSt3__14pairIKNS_12basic_stringIcNS_11char_traitsIcEENS_9allocatorIcEEEEN2sf7Vector2IfEEED1Ev, symObjAddr: 0x1818, symBinAddr: 0x100012894, symSize: 0x2C }
  - { offset: 0x83D2F, size: 0x8, addend: 0x0, symName: __ZNSt3__14pairIKNS_12basic_stringIcNS_11char_traitsIcEENS_9allocatorIcEEEEN2sf7Vector2IfEEED2Ev, symObjAddr: 0x1844, symBinAddr: 0x1000128C0, symSize: 0x2C }
  - { offset: 0x83D5B, size: 0x8, addend: 0x0, symName: __ZNSt3__112__value_typeINS_12basic_stringIcNS_11char_traitsIcEENS_9allocatorIcEEEEN2sf7Vector2IfEEE11__get_valueB8ne180100Ev, symObjAddr: 0x1870, symBinAddr: 0x1000128EC, symSize: 0x24 }
  - { offset: 0x83D81, size: 0x8, addend: 0x0, symName: __ZNSt3__19allocatorINS_11__tree_nodeINS_12__value_typeINS_12basic_stringIcNS_11char_traitsIcEENS0_IcEEEEN2sf7Vector2IfEEEEPvEEE10deallocateB8ne180100EPSD_m, symObjAddr: 0x18CC, symBinAddr: 0x100012948, symSize: 0x40 }
  - { offset: 0x83DC3, size: 0x8, addend: 0x0, symName: __ZNKSt3__16__treeINS_12__value_typeINS_12basic_stringIcNS_11char_traitsIcEENS_9allocatorIcEEEEN2sf7Vector2IfEEEENS_19__map_value_compareIS7_SB_NS_4lessIS7_EELb1EEENS5_ISB_EEE10__end_nodeB8ne180100Ev, symObjAddr: 0x190C, symBinAddr: 0x100012988, symSize: 0x2C }
  - { offset: 0x83DE9, size: 0x8, addend: 0x0, symName: __ZNKSt3__117__compressed_pairINS_15__tree_end_nodeIPNS_16__tree_node_baseIPvEEEENS_9allocatorINS_11__tree_nodeINS_12__value_typeINS_12basic_stringIcNS_11char_traitsIcEENS7_IcEEEEN2sf7Vector2IfEEEES3_EEEEE5firstB8ne180100Ev, symObjAddr: 0x1938, symBinAddr: 0x1000129B4, symSize: 0x24 }
  - { offset: 0x83E0F, size: 0x8, addend: 0x0, symName: __ZNK2sf4RectIfE8containsEff, symObjAddr: 0x1970, symBinAddr: 0x1000129D8, symSize: 0x138 }
  - { offset: 0x83E9A, size: 0x8, addend: 0x0, symName: __ZNKSt3__16__lessIvvEclB8ne180100IffEEbRKT_RKT0_, symObjAddr: 0x1B54, symBinAddr: 0x100012BBC, symSize: 0x30 }
  - { offset: 0x8BC25, size: 0x8, addend: 0x0, symName: __ZNSt3__1neB8ne180100ERKNS_14__map_iteratorINS_15__tree_iteratorINS_12__value_typeINS_12basic_stringIcNS_11char_traitsIcEENS_9allocatorIcEEEEP18AnimationComponentEEPNS_11__tree_nodeISB_PvEElEEEESJ_, symObjAddr: 0x57C, symBinAddr: 0x100013190, symSize: 0x2C }
  - { offset: 0x8BCEF, size: 0x8, addend: 0x0, symName: __ZNSt3__112__destroy_atB8ne180100INS_4pairIKNS_12basic_stringIcNS_11char_traitsIcEENS_9allocatorIcEEEEP18AnimationComponentEETnNS_9enable_ifIXntsr8is_arrayIT_EE5valueEiE4typeELi0EEEvPSD_, symObjAddr: 0x1448, symBinAddr: 0x100013790, symSize: 0x24 }
  - { offset: 0x8BD26, size: 0x8, addend: 0x0, symName: __ZNSt3__17launderB8ne180100INS_4pairIKNS_12basic_stringIcNS_11char_traitsIcEENS_9allocatorIcEEEEP18AnimationComponentEEEEPT_SD_, symObjAddr: 0x14E8, symBinAddr: 0x100013830, symSize: 0x24 }
  - { offset: 0x8BD5D, size: 0x8, addend: 0x0, symName: __ZNSt3__19__launderB8ne180100INS_4pairIKNS_12basic_stringIcNS_11char_traitsIcEENS_9allocatorIcEEEEP18AnimationComponentEEEEPT_SD_, symObjAddr: 0x150C, symBinAddr: 0x100013854, symSize: 0x14 }
  - { offset: 0x8BD94, size: 0x8, addend: 0x0, symName: __ZNSt3__1neB8ne180100ERKNS_15__tree_iteratorINS_12__value_typeINS_12basic_stringIcNS_11char_traitsIcEENS_9allocatorIcEEEEP18AnimationComponentEEPNS_11__tree_nodeISA_PvEElEESH_, symObjAddr: 0x16C0, symBinAddr: 0x100013A08, symSize: 0x30 }
  - { offset: 0x8BDD1, size: 0x8, addend: 0x0, symName: __ZNSt3__1eqB8ne180100ERKNS_15__tree_iteratorINS_12__value_typeINS_12basic_stringIcNS_11char_traitsIcEENS_9allocatorIcEEEEP18AnimationComponentEEPNS_11__tree_nodeISA_PvEElEESH_, symObjAddr: 0x16F0, symBinAddr: 0x100013A38, symSize: 0x2C }
  - { offset: 0x8D52E, size: 0x8, addend: 0x0, symName: __ZN6EntityC2Ev, symObjAddr: 0x0, symBinAddr: 0x100012C40, symSize: 0x6C }
  - { offset: 0x8D55A, size: 0x8, addend: 0x0, symName: __ZNSt3__13mapINS_12basic_stringIcNS_11char_traitsIcEENS_9allocatorIcEEEEP18AnimationComponentNS_4lessIS6_EENS4_INS_4pairIKS6_S8_EEEEEC1B8ne180100Ev, symObjAddr: 0x98, symBinAddr: 0x100012CAC, symSize: 0x2C }
  - { offset: 0x8D584, size: 0x8, addend: 0x0, symName: __ZN6Entity9setSpriteEv, symObjAddr: 0xC4, symBinAddr: 0x100012CD8, symSize: 0x68 }
  - { offset: 0x8D5AC, size: 0x8, addend: 0x0, symName: __ZN6Entity11setPositionERKN2sf7Vector2IfEE, symObjAddr: 0x12C, symBinAddr: 0x100012D40, symSize: 0x58 }
  - { offset: 0x8D5E2, size: 0x8, addend: 0x0, symName: __ZN6Entity21createHitboxComponentEffff, symObjAddr: 0x184, symBinAddr: 0x100012D98, symSize: 0x90 }
  - { offset: 0x8D642, size: 0x8, addend: 0x0, symName: __ZN6Entity23createMoveMentComponentERKfS1_S1_, symObjAddr: 0x214, symBinAddr: 0x100012E28, symSize: 0x94 }
  - { offset: 0x8D694, size: 0x8, addend: 0x0, symName: __ZN6Entity24createAnimationComponentENSt3__112basic_stringIcNS0_11char_traitsIcEENS0_9allocatorIcEEEE, symObjAddr: 0x2A8, symBinAddr: 0x100012EBC, symSize: 0x14 }
  - { offset: 0x8D6CB, size: 0x8, addend: 0x0, symName: __ZN6Entity4moveERKfS1_S1_, symObjAddr: 0x2BC, symBinAddr: 0x100012ED0, symSize: 0x70 }
  - { offset: 0x8D71D, size: 0x8, addend: 0x0, symName: __ZN6Entity10drawEntityEPN2sf12RenderTargetE, symObjAddr: 0x32C, symBinAddr: 0x100012F40, symSize: 0x74 }
  - { offset: 0x8D753, size: 0x8, addend: 0x0, symName: __ZN6EntityD2Ev, symObjAddr: 0x3A0, symBinAddr: 0x100012FB4, symSize: 0x16C }
  - { offset: 0x8D7C9, size: 0x8, addend: 0x0, symName: __ZNSt3__13mapINS_12basic_stringIcNS_11char_traitsIcEENS_9allocatorIcEEEEP18AnimationComponentNS_4lessIS6_EENS4_INS_4pairIKS6_S8_EEEEE5beginB8ne180100Ev, symObjAddr: 0x50C, symBinAddr: 0x100013120, symSize: 0x38 }
  - { offset: 0x8D7EF, size: 0x8, addend: 0x0, symName: __ZNSt3__13mapINS_12basic_stringIcNS_11char_traitsIcEENS_9allocatorIcEEEEP18AnimationComponentNS_4lessIS6_EENS4_INS_4pairIKS6_S8_EEEEE3endB8ne180100Ev, symObjAddr: 0x544, symBinAddr: 0x100013158, symSize: 0x38 }
  - { offset: 0x8D815, size: 0x8, addend: 0x0, symName: __ZNKSt3__114__map_iteratorINS_15__tree_iteratorINS_12__value_typeINS_12basic_stringIcNS_11char_traitsIcEENS_9allocatorIcEEEEP18AnimationComponentEEPNS_11__tree_nodeISB_PvEElEEEdeB8ne180100Ev, symObjAddr: 0x5B8, symBinAddr: 0x1000131BC, symSize: 0x28 }
  - { offset: 0x8D83B, size: 0x8, addend: 0x0, symName: __ZNSt3__114__map_iteratorINS_15__tree_iteratorINS_12__value_typeINS_12basic_stringIcNS_11char_traitsIcEENS_9allocatorIcEEEEP18AnimationComponentEEPNS_11__tree_nodeISB_PvEElEEEppB8ne180100Ev, symObjAddr: 0x5E0, symBinAddr: 0x1000131E4, symSize: 0x2C }
  - { offset: 0x8D861, size: 0x8, addend: 0x0, symName: __ZNSt3__13mapINS_12basic_stringIcNS_11char_traitsIcEENS_9allocatorIcEEEEP18AnimationComponentNS_4lessIS6_EENS4_INS_4pairIKS6_S8_EEEEED1B8ne180100Ev, symObjAddr: 0x60C, symBinAddr: 0x100013210, symSize: 0x2C }
  - { offset: 0x8D88B, size: 0x8, addend: 0x0, symName: __ZN6EntityD1Ev, symObjAddr: 0x664, symBinAddr: 0x10001323C, symSize: 0x14 }
  - { offset: 0x8D8B7, size: 0x8, addend: 0x0, symName: __ZN6EntityD0Ev, symObjAddr: 0x678, symBinAddr: 0x100013250, symSize: 0xC }
  - { offset: 0x8D8E8, size: 0x8, addend: 0x0, symName: __ZNSt3__13mapINS_12basic_stringIcNS_11char_traitsIcEENS_9allocatorIcEEEEP18AnimationComponentNS_4lessIS6_EENS4_INS_4pairIKS6_S8_EEEEEC2B8ne180100Ev, symObjAddr: 0xA38, symBinAddr: 0x10001325C, symSize: 0x40 }
  - { offset: 0x8D912, size: 0x8, addend: 0x0, symName: __ZNSt3__119__map_value_compareINS_12basic_stringIcNS_11char_traitsIcEENS_9allocatorIcEEEENS_12__value_typeIS6_P18AnimationComponentEENS_4lessIS6_EELb1EEC1B8ne180100ESC_, symObjAddr: 0xA78, symBinAddr: 0x10001329C, symSize: 0x2C }
  - { offset: 0x8D94B, size: 0x8, addend: 0x0, symName: __ZNSt3__16__treeINS_12__value_typeINS_12basic_stringIcNS_11char_traitsIcEENS_9allocatorIcEEEEP18AnimationComponentEENS_19__map_value_compareIS7_SA_NS_4lessIS7_EELb1EEENS5_ISA_EEEC1ERKSE_, symObjAddr: 0xAA4, symBinAddr: 0x1000132C8, symSize: 0x34 }
  - { offset: 0x8D986, size: 0x8, addend: 0x0, symName: __ZNSt3__119__map_value_compareINS_12basic_stringIcNS_11char_traitsIcEENS_9allocatorIcEEEENS_12__value_typeIS6_P18AnimationComponentEENS_4lessIS6_EELb1EEC2B8ne180100ESC_, symObjAddr: 0xAD8, symBinAddr: 0x1000132FC, symSize: 0x14 }
  - { offset: 0x8D9BF, size: 0x8, addend: 0x0, symName: __ZNSt3__16__treeINS_12__value_typeINS_12basic_stringIcNS_11char_traitsIcEENS_9allocatorIcEEEEP18AnimationComponentEENS_19__map_value_compareIS7_SA_NS_4lessIS7_EELb1EEENS5_ISA_EEEC2ERKSE_, symObjAddr: 0xAEC, symBinAddr: 0x100013310, symSize: 0x7C }
  - { offset: 0x8D9FA, size: 0x8, addend: 0x0, symName: __ZNSt3__117__compressed_pairINS_15__tree_end_nodeIPNS_16__tree_node_baseIPvEEEENS_9allocatorINS_11__tree_nodeINS_12__value_typeINS_12basic_stringIcNS_11char_traitsIcEENS7_IcEEEEP18AnimationComponentEES3_EEEEEC1B8ne180100ILb1EvEEv, symObjAddr: 0xB68, symBinAddr: 0x10001338C, symSize: 0x2C }
  - { offset: 0x8DA2F, size: 0x8, addend: 0x0, symName: __ZNSt3__117__compressed_pairImNS_19__map_value_compareINS_12basic_stringIcNS_11char_traitsIcEENS_9allocatorIcEEEENS_12__value_typeIS7_P18AnimationComponentEENS_4lessIS7_EELb1EEEEC1B8ne180100IiRKSE_EEOT_OT0_, symObjAddr: 0xB94, symBinAddr: 0x1000133B8, symSize: 0x3C }
  - { offset: 0x8DA87, size: 0x8, addend: 0x0, symName: __ZNSt3__16__treeINS_12__value_typeINS_12basic_stringIcNS_11char_traitsIcEENS_9allocatorIcEEEEP18AnimationComponentEENS_19__map_value_compareIS7_SA_NS_4lessIS7_EELb1EEENS5_ISA_EEE10__end_nodeB8ne180100Ev, symObjAddr: 0xBD0, symBinAddr: 0x1000133F4, symSize: 0x2C }
  - { offset: 0x8DAAD, size: 0x8, addend: 0x0, symName: __ZNSt3__16__treeINS_12__value_typeINS_12basic_stringIcNS_11char_traitsIcEENS_9allocatorIcEEEEP18AnimationComponentEENS_19__map_value_compareIS7_SA_NS_4lessIS7_EELb1EEENS5_ISA_EEE12__begin_nodeB8ne180100Ev, symObjAddr: 0xBFC, symBinAddr: 0x100013420, symSize: 0x14 }
  - { offset: 0x8DAD3, size: 0x8, addend: 0x0, symName: __ZNSt3__117__compressed_pairINS_15__tree_end_nodeIPNS_16__tree_node_baseIPvEEEENS_9allocatorINS_11__tree_nodeINS_12__value_typeINS_12basic_stringIcNS_11char_traitsIcEENS7_IcEEEEP18AnimationComponentEES3_EEEEEC2B8ne180100ILb1EvEEv, symObjAddr: 0xC10, symBinAddr: 0x100013434, symSize: 0x34 }
  - { offset: 0x8DB08, size: 0x8, addend: 0x0, symName: __ZNSt3__122__compressed_pair_elemINS_9allocatorINS_11__tree_nodeINS_12__value_typeINS_12basic_stringIcNS_11char_traitsIcEENS1_IcEEEEP18AnimationComponentEEPvEEEELi1ELb1EEC2B8ne180100ENS_16__value_init_tagE, symObjAddr: 0xC44, symBinAddr: 0x100013468, symSize: 0x2C }
  - { offset: 0x8DB3D, size: 0x8, addend: 0x0, symName: __ZNSt3__19allocatorINS_11__tree_nodeINS_12__value_typeINS_12basic_stringIcNS_11char_traitsIcEENS0_IcEEEEP18AnimationComponentEEPvEEEC2B8ne180100Ev, symObjAddr: 0xC70, symBinAddr: 0x100013494, symSize: 0x2C }
  - { offset: 0x8DB67, size: 0x8, addend: 0x0, symName: __ZNSt3__116__non_trivial_ifILb1ENS_9allocatorINS_11__tree_nodeINS_12__value_typeINS_12basic_stringIcNS_11char_traitsIcEENS1_IcEEEEP18AnimationComponentEEPvEEEEEC2B8ne180100Ev, symObjAddr: 0xC9C, symBinAddr: 0x1000134C0, symSize: 0x14 }
  - { offset: 0x8DB91, size: 0x8, addend: 0x0, symName: __ZNSt3__117__compressed_pairImNS_19__map_value_compareINS_12basic_stringIcNS_11char_traitsIcEENS_9allocatorIcEEEENS_12__value_typeIS7_P18AnimationComponentEENS_4lessIS7_EELb1EEEEC2B8ne180100IiRKSE_EEOT_OT0_, symObjAddr: 0xCB0, symBinAddr: 0x1000134D4, symSize: 0x44 }
  - { offset: 0x8DBE9, size: 0x8, addend: 0x0, symName: __ZNSt3__122__compressed_pair_elemINS_19__map_value_compareINS_12basic_stringIcNS_11char_traitsIcEENS_9allocatorIcEEEENS_12__value_typeIS7_P18AnimationComponentEENS_4lessIS7_EELb1EEELi1ELb1EEC2B8ne180100IRKSE_vEEOT_, symObjAddr: 0xCF4, symBinAddr: 0x100013518, symSize: 0x18 }
  - { offset: 0x8DC2B, size: 0x8, addend: 0x0, symName: __ZNSt3__117__compressed_pairINS_15__tree_end_nodeIPNS_16__tree_node_baseIPvEEEENS_9allocatorINS_11__tree_nodeINS_12__value_typeINS_12basic_stringIcNS_11char_traitsIcEENS7_IcEEEEP18AnimationComponentEES3_EEEEE5firstB8ne180100Ev, symObjAddr: 0xD0C, symBinAddr: 0x100013530, symSize: 0x24 }
  - { offset: 0x8DC51, size: 0x8, addend: 0x0, symName: __ZNSt3__13mapINS_12basic_stringIcNS_11char_traitsIcEENS_9allocatorIcEEEEP18AnimationComponentNS_4lessIS6_EENS4_INS_4pairIKS6_S8_EEEEED2B8ne180100Ev, symObjAddr: 0x120C, symBinAddr: 0x100013554, symSize: 0x2C }
  - { offset: 0x8DC7B, size: 0x8, addend: 0x0, symName: __ZNSt3__16__treeINS_12__value_typeINS_12basic_stringIcNS_11char_traitsIcEENS_9allocatorIcEEEEP18AnimationComponentEENS_19__map_value_compareIS7_SA_NS_4lessIS7_EELb1EEENS5_ISA_EEED1Ev, symObjAddr: 0x1238, symBinAddr: 0x100013580, symSize: 0x2C }
  - { offset: 0x8DCA7, size: 0x8, addend: 0x0, symName: __ZNSt3__16__treeINS_12__value_typeINS_12basic_stringIcNS_11char_traitsIcEENS_9allocatorIcEEEEP18AnimationComponentEENS_19__map_value_compareIS7_SA_NS_4lessIS7_EELb1EEENS5_ISA_EEED2Ev, symObjAddr: 0x1264, symBinAddr: 0x1000135AC, symSize: 0x38 }
  - { offset: 0x8DCD3, size: 0x8, addend: 0x0, symName: __ZNSt3__16__treeINS_12__value_typeINS_12basic_stringIcNS_11char_traitsIcEENS_9allocatorIcEEEEP18AnimationComponentEENS_19__map_value_compareIS7_SA_NS_4lessIS7_EELb1EEENS5_ISA_EEE7destroyEPNS_11__tree_nodeISA_PvEE, symObjAddr: 0x129C, symBinAddr: 0x1000135E4, symSize: 0xA4 }
  - { offset: 0x8DD20, size: 0x8, addend: 0x0, symName: __ZNKSt3__16__treeINS_12__value_typeINS_12basic_stringIcNS_11char_traitsIcEENS_9allocatorIcEEEEP18AnimationComponentEENS_19__map_value_compareIS7_SA_NS_4lessIS7_EELb1EEENS5_ISA_EEE6__rootB8ne180100Ev, symObjAddr: 0x1340, symBinAddr: 0x100013688, symSize: 0x28 }
  - { offset: 0x8DD46, size: 0x8, addend: 0x0, symName: __ZNSt3__16__treeINS_12__value_typeINS_12basic_stringIcNS_11char_traitsIcEENS_9allocatorIcEEEEP18AnimationComponentEENS_19__map_value_compareIS7_SA_NS_4lessIS7_EELb1EEENS5_ISA_EEE12__node_allocB8ne180100Ev, symObjAddr: 0x1368, symBinAddr: 0x1000136B0, symSize: 0x28 }
  - { offset: 0x8DD71, size: 0x8, addend: 0x0, symName: __ZNSt3__116allocator_traitsINS_9allocatorINS_11__tree_nodeINS_12__value_typeINS_12basic_stringIcNS_11char_traitsIcEENS1_IcEEEEP18AnimationComponentEEPvEEEEE7destroyB8ne180100INS_4pairIKS8_SA_EEvvEEvRSE_PT_, symObjAddr: 0x1390, symBinAddr: 0x1000136D8, symSize: 0x28 }
  - { offset: 0x8DDAC, size: 0x8, addend: 0x0, symName: __ZNSt3__122__tree_key_value_typesINS_12__value_typeINS_12basic_stringIcNS_11char_traitsIcEENS_9allocatorIcEEEEP18AnimationComponentEEE9__get_ptrB8ne180100ERSA_, symObjAddr: 0x13B8, symBinAddr: 0x100013700, symSize: 0x24 }
  - { offset: 0x8DDD0, size: 0x8, addend: 0x0, symName: __ZNSt3__116allocator_traitsINS_9allocatorINS_11__tree_nodeINS_12__value_typeINS_12basic_stringIcNS_11char_traitsIcEENS1_IcEEEEP18AnimationComponentEEPvEEEEE10deallocateB8ne180100ERSE_PSD_m, symObjAddr: 0x13DC, symBinAddr: 0x100013724, symSize: 0x34 }
  - { offset: 0x8DE12, size: 0x8, addend: 0x0, symName: __ZNSt3__117__compressed_pairINS_15__tree_end_nodeIPNS_16__tree_node_baseIPvEEEENS_9allocatorINS_11__tree_nodeINS_12__value_typeINS_12basic_stringIcNS_11char_traitsIcEENS7_IcEEEEP18AnimationComponentEES3_EEEEE6secondB8ne180100Ev, symObjAddr: 0x1410, symBinAddr: 0x100013758, symSize: 0x24 }
  - { offset: 0x8DE38, size: 0x8, addend: 0x0, symName: __ZNSt3__122__compressed_pair_elemINS_9allocatorINS_11__tree_nodeINS_12__value_typeINS_12basic_stringIcNS_11char_traitsIcEENS1_IcEEEEP18AnimationComponentEEPvEEEELi1ELb1EE5__getB8ne180100Ev, symObjAddr: 0x1434, symBinAddr: 0x10001377C, symSize: 0x14 }
  - { offset: 0x8DE5E, size: 0x8, addend: 0x0, symName: __ZNSt3__14pairIKNS_12basic_stringIcNS_11char_traitsIcEENS_9allocatorIcEEEEP18AnimationComponentED1Ev, symObjAddr: 0x146C, symBinAddr: 0x1000137B4, symSize: 0x2C }
  - { offset: 0x8DE8A, size: 0x8, addend: 0x0, symName: __ZNSt3__14pairIKNS_12basic_stringIcNS_11char_traitsIcEENS_9allocatorIcEEEEP18AnimationComponentED2Ev, symObjAddr: 0x1498, symBinAddr: 0x1000137E0, symSize: 0x2C }
  - { offset: 0x8DEB6, size: 0x8, addend: 0x0, symName: __ZNSt3__112__value_typeINS_12basic_stringIcNS_11char_traitsIcEENS_9allocatorIcEEEEP18AnimationComponentE11__get_valueB8ne180100Ev, symObjAddr: 0x14C4, symBinAddr: 0x10001380C, symSize: 0x24 }
  - { offset: 0x8DEDC, size: 0x8, addend: 0x0, symName: __ZNSt3__19allocatorINS_11__tree_nodeINS_12__value_typeINS_12basic_stringIcNS_11char_traitsIcEENS0_IcEEEEP18AnimationComponentEEPvEEE10deallocateB8ne180100EPSC_m, symObjAddr: 0x1520, symBinAddr: 0x100013868, symSize: 0x40 }
  - { offset: 0x8DF1E, size: 0x8, addend: 0x0, symName: __ZNKSt3__16__treeINS_12__value_typeINS_12basic_stringIcNS_11char_traitsIcEENS_9allocatorIcEEEEP18AnimationComponentEENS_19__map_value_compareIS7_SA_NS_4lessIS7_EELb1EEENS5_ISA_EEE10__end_nodeB8ne180100Ev, symObjAddr: 0x1560, symBinAddr: 0x1000138A8, symSize: 0x2C }
  - { offset: 0x8DF44, size: 0x8, addend: 0x0, symName: __ZNKSt3__117__compressed_pairINS_15__tree_end_nodeIPNS_16__tree_node_baseIPvEEEENS_9allocatorINS_11__tree_nodeINS_12__value_typeINS_12basic_stringIcNS_11char_traitsIcEENS7_IcEEEEP18AnimationComponentEES3_EEEEE5firstB8ne180100Ev, symObjAddr: 0x158C, symBinAddr: 0x1000138D4, symSize: 0x24 }
  - { offset: 0x8DF6A, size: 0x8, addend: 0x0, symName: __ZNSt3__16__treeINS_12__value_typeINS_12basic_stringIcNS_11char_traitsIcEENS_9allocatorIcEEEEP18AnimationComponentEENS_19__map_value_compareIS7_SA_NS_4lessIS7_EELb1EEENS5_ISA_EEE5beginB8ne180100Ev, symObjAddr: 0x15B0, symBinAddr: 0x1000138F8, symSize: 0x34 }
  - { offset: 0x8DF90, size: 0x8, addend: 0x0, symName: __ZNSt3__114__map_iteratorINS_15__tree_iteratorINS_12__value_typeINS_12basic_stringIcNS_11char_traitsIcEENS_9allocatorIcEEEEP18AnimationComponentEEPNS_11__tree_nodeISB_PvEElEEEC1B8ne180100ESG_, symObjAddr: 0x15E4, symBinAddr: 0x10001392C, symSize: 0x34 }
  - { offset: 0x8DFC9, size: 0x8, addend: 0x0, symName: __ZNSt3__115__tree_iteratorINS_12__value_typeINS_12basic_stringIcNS_11char_traitsIcEENS_9allocatorIcEEEEP18AnimationComponentEEPNS_11__tree_nodeISA_PvEElEC1B8ne180100EPNS_15__tree_end_nodeIPNS_16__tree_node_baseISC_EEEE, symObjAddr: 0x1618, symBinAddr: 0x100013960, symSize: 0x34 }
  - { offset: 0x8E002, size: 0x8, addend: 0x0, symName: __ZNSt3__115__tree_iteratorINS_12__value_typeINS_12basic_stringIcNS_11char_traitsIcEENS_9allocatorIcEEEEP18AnimationComponentEEPNS_11__tree_nodeISA_PvEElEC2B8ne180100EPNS_15__tree_end_nodeIPNS_16__tree_node_baseISC_EEEE, symObjAddr: 0x164C, symBinAddr: 0x100013994, symSize: 0x20 }
  - { offset: 0x8E03B, size: 0x8, addend: 0x0, symName: __ZNSt3__114__map_iteratorINS_15__tree_iteratorINS_12__value_typeINS_12basic_stringIcNS_11char_traitsIcEENS_9allocatorIcEEEEP18AnimationComponentEEPNS_11__tree_nodeISB_PvEElEEEC2B8ne180100ESG_, symObjAddr: 0x166C, symBinAddr: 0x1000139B4, symSize: 0x20 }
  - { offset: 0x8E074, size: 0x8, addend: 0x0, symName: __ZNSt3__16__treeINS_12__value_typeINS_12basic_stringIcNS_11char_traitsIcEENS_9allocatorIcEEEEP18AnimationComponentEENS_19__map_value_compareIS7_SA_NS_4lessIS7_EELb1EEENS5_ISA_EEE3endB8ne180100Ev, symObjAddr: 0x168C, symBinAddr: 0x1000139D4, symSize: 0x34 }
  - { offset: 0x8E09A, size: 0x8, addend: 0x0, symName: __ZNSt3__115__tree_iteratorINS_12__value_typeINS_12basic_stringIcNS_11char_traitsIcEENS_9allocatorIcEEEEP18AnimationComponentEEPNS_11__tree_nodeISA_PvEElEppB8ne180100Ev, symObjAddr: 0x171C, symBinAddr: 0x100013A64, symSize: 0x38 }
  - { offset: 0x8E0C0, size: 0x8, addend: 0x0, symName: __ZNKSt3__115__tree_iteratorINS_12__value_typeINS_12basic_stringIcNS_11char_traitsIcEENS_9allocatorIcEEEEP18AnimationComponentEEPNS_11__tree_nodeISA_PvEElEptB8ne180100Ev, symObjAddr: 0x1854, symBinAddr: 0x100013A9C, symSize: 0x2C }
  - { offset: 0x8E0E6, size: 0x8, addend: 0x0, symName: __ZNSt3__114pointer_traitsIPNS_12__value_typeINS_12basic_stringIcNS_11char_traitsIcEENS_9allocatorIcEEEEP18AnimationComponentEEE10pointer_toB8ne180100ERSA_, symObjAddr: 0x1880, symBinAddr: 0x100013AC8, symSize: 0x14 }
  - { offset: 0x8E109, size: 0x8, addend: 0x0, symName: __ZNKSt3__115__tree_iteratorINS_12__value_typeINS_12basic_stringIcNS_11char_traitsIcEENS_9allocatorIcEEEEP18AnimationComponentEEPNS_11__tree_nodeISA_PvEElE8__get_npB8ne180100Ev, symObjAddr: 0x1894, symBinAddr: 0x100013ADC, symSize: 0x18 }
  - { offset: 0x8FEC7, size: 0x8, addend: 0x0, symName: __ZN17MovementComponentC2ERN2sf6SpriteEfff, symObjAddr: 0x0, symBinAddr: 0x100013AF4, symSize: 0x70 }
  - { offset: 0x90AE7, size: 0x8, addend: 0x0, symName: __ZN17MovementComponentC2ERN2sf6SpriteEfff, symObjAddr: 0x0, symBinAddr: 0x100013AF4, symSize: 0x70 }
  - { offset: 0x90B4B, size: 0x8, addend: 0x0, symName: __ZN17MovementComponentC1ERN2sf6SpriteEfff, symObjAddr: 0x9C, symBinAddr: 0x100013B64, symSize: 0x4C }
  - { offset: 0x90BAF, size: 0x8, addend: 0x0, symName: __ZNK17MovementComponent11getVelocityEv, symObjAddr: 0xE8, symBinAddr: 0x100013BB0, symSize: 0x18 }
  - { offset: 0x90BD7, size: 0x8, addend: 0x0, symName: __ZNK17MovementComponent14getMaxVelocityEv, symObjAddr: 0x100, symBinAddr: 0x100013BC8, symSize: 0x18 }
  - { offset: 0x90BFF, size: 0x8, addend: 0x0, symName: __ZNK17MovementComponent16getMovementStateEt, symObjAddr: 0x118, symBinAddr: 0x100013BE0, symSize: 0x178 }
  - { offset: 0x90C35, size: 0x8, addend: 0x0, symName: __ZN17MovementComponent4moveERKfS1_S1_, symObjAddr: 0x290, symBinAddr: 0x100013D58, symSize: 0x120 }
  - { offset: 0x90C87, size: 0x8, addend: 0x0, symName: __ZN17MovementComponent6updateERKf, symObjAddr: 0x3B0, symBinAddr: 0x100013E78, symSize: 0x1BC }
  - { offset: 0x90CBD, size: 0x8, addend: 0x0, symName: __ZN17MovementComponentD2Ev, symObjAddr: 0x56C, symBinAddr: 0x100014034, symSize: 0x14 }
  - { offset: 0x90CE9, size: 0x8, addend: 0x0, symName: __ZN17MovementComponentD1Ev, symObjAddr: 0x580, symBinAddr: 0x100014048, symSize: 0x2C }
  - { offset: 0x90D15, size: 0x8, addend: 0x0, symName: __ZN17MovementComponentD0Ev, symObjAddr: 0x5AC, symBinAddr: 0x100014074, symSize: 0x30 }
  - { offset: 0x96BF8, size: 0x8, addend: 0x0, symName: __ZNSt3__1neB8ne180100ERKNS_14__map_iteratorINS_15__tree_iteratorINS_12__value_typeINS_12basic_stringIcNS_11char_traitsIcEENS_9allocatorIcEEEEPN18AnimationComponent9AnimationEEEPNS_11__tree_nodeISC_PvEElEEEESK_, symObjAddr: 0xAAC, symBinAddr: 0x100014B24, symSize: 0x2C }
  - { offset: 0x96C35, size: 0x8, addend: 0x0, symName: __ZNSt3__112__destroy_atB8ne180100INS_4pairIKNS_12basic_stringIcNS_11char_traitsIcEENS_9allocatorIcEEEEPN18AnimationComponent9AnimationEEETnNS_9enable_ifIXntsr8is_arrayIT_EE5valueEiE4typeELi0EEEvPSE_, symObjAddr: 0x14A8, symBinAddr: 0x100015358, symSize: 0x24 }
  - { offset: 0x96C6C, size: 0x8, addend: 0x0, symName: __ZNSt3__17launderB8ne180100INS_4pairIKNS_12basic_stringIcNS_11char_traitsIcEENS_9allocatorIcEEEEPN18AnimationComponent9AnimationEEEEEPT_SE_, symObjAddr: 0x1548, symBinAddr: 0x1000153F8, symSize: 0x24 }
  - { offset: 0x96CA3, size: 0x8, addend: 0x0, symName: __ZNSt3__19__launderB8ne180100INS_4pairIKNS_12basic_stringIcNS_11char_traitsIcEENS_9allocatorIcEEEEPN18AnimationComponent9AnimationEEEEEPT_SE_, symObjAddr: 0x156C, symBinAddr: 0x10001541C, symSize: 0x14 }
  - { offset: 0x96CDA, size: 0x8, addend: 0x0, symName: __ZNSt3__17launderB8ne180100IKNS_4pairIKNS_12basic_stringIcNS_11char_traitsIcEENS_9allocatorIcEEEEPN18AnimationComponent9AnimationEEEEEPT_SF_, symObjAddr: 0x23D4, symBinAddr: 0x100015B74, symSize: 0x24 }
  - { offset: 0x96D11, size: 0x8, addend: 0x0, symName: __ZNSt3__19__launderB8ne180100IKNS_4pairIKNS_12basic_stringIcNS_11char_traitsIcEENS_9allocatorIcEEEEPN18AnimationComponent9AnimationEEEEEPT_SF_, symObjAddr: 0x23F8, symBinAddr: 0x100015B98, symSize: 0x14 }
  - { offset: 0x96D99, size: 0x8, addend: 0x0, symName: __ZNSt3__1neB8ne180100ERKNS_15__tree_iteratorINS_12__value_typeINS_12basic_stringIcNS_11char_traitsIcEENS_9allocatorIcEEEEPN18AnimationComponent9AnimationEEEPNS_11__tree_nodeISB_PvEElEESI_, symObjAddr: 0x32F8, symBinAddr: 0x100016374, symSize: 0x30 }
  - { offset: 0x96DD6, size: 0x8, addend: 0x0, symName: __ZNSt3__1eqB8ne180100ERKNS_15__tree_iteratorINS_12__value_typeINS_12basic_stringIcNS_11char_traitsIcEENS_9allocatorIcEEEEPN18AnimationComponent9AnimationEEEPNS_11__tree_nodeISB_PvEElEESI_, symObjAddr: 0x3328, symBinAddr: 0x1000163A4, symSize: 0x2C }
  - { offset: 0x97981, size: 0x8, addend: 0x0, symName: __ZN2sfneIiEEbRKNS_4RectIT_EES5_, symObjAddr: 0xDB0, symBinAddr: 0x100014D38, symSize: 0x30 }
  - { offset: 0x979C5, size: 0x8, addend: 0x0, symName: __ZN2sfeqIiEEbRKNS_4RectIT_EES5_, symObjAddr: 0xDE0, symBinAddr: 0x100014D68, symSize: 0xA8 }
  - { offset: 0x98124, size: 0x8, addend: 0x0, symName: __ZN18AnimationComponentC2ERN2sf7TextureERNS0_6SpriteE, symObjAddr: 0x0, symBinAddr: 0x1000140A4, symSize: 0xB4 }
  - { offset: 0x9816C, size: 0x8, addend: 0x0, symName: __ZNSt3__13mapINS_12basic_stringIcNS_11char_traitsIcEENS_9allocatorIcEEEEPN18AnimationComponent9AnimationENS_4lessIS6_EENS4_INS_4pairIKS6_S9_EEEEEC1B8ne180100Ev, symObjAddr: 0xE0, symBinAddr: 0x100014158, symSize: 0x2C }
  - { offset: 0x98196, size: 0x8, addend: 0x0, symName: __ZNSt3__13mapINS_12basic_stringIcNS_11char_traitsIcEENS_9allocatorIcEEEEPN18AnimationComponent9AnimationENS_4lessIS6_EENS4_INS_4pairIKS6_S9_EEEEED1B8ne180100Ev, symObjAddr: 0x10C, symBinAddr: 0x100014184, symSize: 0x2C }
  - { offset: 0x981C0, size: 0x8, addend: 0x0, symName: __ZN18AnimationComponentC1ERN2sf7TextureERNS0_6SpriteE, symObjAddr: 0x138, symBinAddr: 0x1000141B0, symSize: 0x3C }
  - { offset: 0x98208, size: 0x8, addend: 0x0, symName: __ZN18AnimationComponent12addAnimationENSt3__112basic_stringIcNS0_11char_traitsIcEENS0_9allocatorIcEEEERKfiiiiii, symObjAddr: 0x174, symBinAddr: 0x1000141EC, symSize: 0xC8 }
  - { offset: 0x982A1, size: 0x8, addend: 0x0, symName: __ZN18AnimationComponent9AnimationC1ERN2sf6SpriteERKfiiiiii, symObjAddr: 0x23C, symBinAddr: 0x1000142B4, symSize: 0x78 }
  - { offset: 0x9833B, size: 0x8, addend: 0x0, symName: __ZNSt3__13mapINS_12basic_stringIcNS_11char_traitsIcEENS_9allocatorIcEEEEPN18AnimationComponent9AnimationENS_4lessIS6_EENS4_INS_4pairIKS6_S9_EEEEEixERSD_, symObjAddr: 0x2B4, symBinAddr: 0x10001432C, symSize: 0x80 }
  - { offset: 0x98372, size: 0x8, addend: 0x0, symName: __ZN18AnimationComponent6isDoneENSt3__112basic_stringIcNS0_11char_traitsIcEENS0_9allocatorIcEEEE, symObjAddr: 0x334, symBinAddr: 0x1000143AC, symSize: 0x38 }
  - { offset: 0x983A9, size: 0x8, addend: 0x0, symName: __ZN18AnimationComponent9Animation6isDoneEv, symObjAddr: 0x36C, symBinAddr: 0x1000143E4, symSize: 0x18 }
  - { offset: 0x983CF, size: 0x8, addend: 0x0, symName: __ZN18AnimationComponent4playENSt3__112basic_stringIcNS0_11char_traitsIcEENS0_9allocatorIcEEEERKfRKb, symObjAddr: 0x384, symBinAddr: 0x1000143FC, symSize: 0x1EC }
  - { offset: 0x98422, size: 0x8, addend: 0x0, symName: __ZN18AnimationComponent9Animation5resetEv, symObjAddr: 0x570, symBinAddr: 0x1000145E8, symSize: 0x24 }
  - { offset: 0x98448, size: 0x8, addend: 0x0, symName: __ZN18AnimationComponent9Animation4playERKf, symObjAddr: 0x594, symBinAddr: 0x10001460C, symSize: 0xC8 }
  - { offset: 0x9847C, size: 0x8, addend: 0x0, symName: __ZN18AnimationComponent4playENSt3__112basic_stringIcNS0_11char_traitsIcEENS0_9allocatorIcEEEERKfS8_RKb, symObjAddr: 0x65C, symBinAddr: 0x1000146D4, symSize: 0x200 }
  - { offset: 0x984DD, size: 0x8, addend: 0x0, symName: __ZN18AnimationComponent9Animation4playERKff, symObjAddr: 0x85C, symBinAddr: 0x1000148D4, symSize: 0xF8 }
  - { offset: 0x9851F, size: 0x8, addend: 0x0, symName: __ZN18AnimationComponentD2Ev, symObjAddr: 0x954, symBinAddr: 0x1000149CC, symSize: 0xE8 }
  - { offset: 0x98595, size: 0x8, addend: 0x0, symName: __ZNSt3__13mapINS_12basic_stringIcNS_11char_traitsIcEENS_9allocatorIcEEEEPN18AnimationComponent9AnimationENS_4lessIS6_EENS4_INS_4pairIKS6_S9_EEEEE5beginB8ne180100Ev, symObjAddr: 0xA3C, symBinAddr: 0x100014AB4, symSize: 0x38 }
  - { offset: 0x985BB, size: 0x8, addend: 0x0, symName: __ZNSt3__13mapINS_12basic_stringIcNS_11char_traitsIcEENS_9allocatorIcEEEEPN18AnimationComponent9AnimationENS_4lessIS6_EENS4_INS_4pairIKS6_S9_EEEEE3endB8ne180100Ev, symObjAddr: 0xA74, symBinAddr: 0x100014AEC, symSize: 0x38 }
  - { offset: 0x985E1, size: 0x8, addend: 0x0, symName: __ZNKSt3__114__map_iteratorINS_15__tree_iteratorINS_12__value_typeINS_12basic_stringIcNS_11char_traitsIcEENS_9allocatorIcEEEEPN18AnimationComponent9AnimationEEEPNS_11__tree_nodeISC_PvEElEEEdeB8ne180100Ev, symObjAddr: 0xAE8, symBinAddr: 0x100014B50, symSize: 0x28 }
  - { offset: 0x98607, size: 0x8, addend: 0x0, symName: __ZN18AnimationComponent9AnimationD1Ev, symObjAddr: 0xB10, symBinAddr: 0x100014B78, symSize: 0x2C }
  - { offset: 0x98631, size: 0x8, addend: 0x0, symName: __ZNSt3__114__map_iteratorINS_15__tree_iteratorINS_12__value_typeINS_12basic_stringIcNS_11char_traitsIcEENS_9allocatorIcEEEEPN18AnimationComponent9AnimationEEEPNS_11__tree_nodeISC_PvEElEEEppB8ne180100Ev, symObjAddr: 0xB3C, symBinAddr: 0x100014BA4, symSize: 0x2C }
  - { offset: 0x98657, size: 0x8, addend: 0x0, symName: __ZN18AnimationComponentD1Ev, symObjAddr: 0xB68, symBinAddr: 0x100014BD0, symSize: 0x2C }
  - { offset: 0x98683, size: 0x8, addend: 0x0, symName: __ZN18AnimationComponentD0Ev, symObjAddr: 0xB94, symBinAddr: 0x100014BFC, symSize: 0x30 }
  - { offset: 0x986AF, size: 0x8, addend: 0x0, symName: __ZN18AnimationComponent9AnimationC2ERN2sf6SpriteERKfiiiiii, symObjAddr: 0xBC4, symBinAddr: 0x100014C2C, symSize: 0x10C }
  - { offset: 0x98749, size: 0x8, addend: 0x0, symName: __ZN18AnimationComponent9AnimationD2Ev, symObjAddr: 0xE88, symBinAddr: 0x100014E10, symSize: 0x14 }
  - { offset: 0x98773, size: 0x8, addend: 0x0, symName: __ZNSt3__13mapINS_12basic_stringIcNS_11char_traitsIcEENS_9allocatorIcEEEEPN18AnimationComponent9AnimationENS_4lessIS6_EENS4_INS_4pairIKS6_S9_EEEEEC2B8ne180100Ev, symObjAddr: 0xEB8, symBinAddr: 0x100014E24, symSize: 0x40 }
  - { offset: 0x9879D, size: 0x8, addend: 0x0, symName: __ZNSt3__119__map_value_compareINS_12basic_stringIcNS_11char_traitsIcEENS_9allocatorIcEEEENS_12__value_typeIS6_PN18AnimationComponent9AnimationEEENS_4lessIS6_EELb1EEC1B8ne180100ESD_, symObjAddr: 0xEF8, symBinAddr: 0x100014E64, symSize: 0x2C }
  - { offset: 0x987D6, size: 0x8, addend: 0x0, symName: __ZNSt3__16__treeINS_12__value_typeINS_12basic_stringIcNS_11char_traitsIcEENS_9allocatorIcEEEEPN18AnimationComponent9AnimationEEENS_19__map_value_compareIS7_SB_NS_4lessIS7_EELb1EEENS5_ISB_EEEC1ERKSF_, symObjAddr: 0xF24, symBinAddr: 0x100014E90, symSize: 0x34 }
  - { offset: 0x98811, size: 0x8, addend: 0x0, symName: __ZNSt3__119__map_value_compareINS_12basic_stringIcNS_11char_traitsIcEENS_9allocatorIcEEEENS_12__value_typeIS6_PN18AnimationComponent9AnimationEEENS_4lessIS6_EELb1EEC2B8ne180100ESD_, symObjAddr: 0xF58, symBinAddr: 0x100014EC4, symSize: 0x14 }
  - { offset: 0x9884A, size: 0x8, addend: 0x0, symName: __ZNSt3__16__treeINS_12__value_typeINS_12basic_stringIcNS_11char_traitsIcEENS_9allocatorIcEEEEPN18AnimationComponent9AnimationEEENS_19__map_value_compareIS7_SB_NS_4lessIS7_EELb1EEENS5_ISB_EEEC2ERKSF_, symObjAddr: 0xF6C, symBinAddr: 0x100014ED8, symSize: 0x7C }
  - { offset: 0x98885, size: 0x8, addend: 0x0, symName: __ZNSt3__117__compressed_pairINS_15__tree_end_nodeIPNS_16__tree_node_baseIPvEEEENS_9allocatorINS_11__tree_nodeINS_12__value_typeINS_12basic_stringIcNS_11char_traitsIcEENS7_IcEEEEPN18AnimationComponent9AnimationEEES3_EEEEEC1B8ne180100ILb1EvEEv, symObjAddr: 0xFE8, symBinAddr: 0x100014F54, symSize: 0x2C }
  - { offset: 0x988BF, size: 0x8, addend: 0x0, symName: __ZNSt3__117__compressed_pairImNS_19__map_value_compareINS_12basic_stringIcNS_11char_traitsIcEENS_9allocatorIcEEEENS_12__value_typeIS7_PN18AnimationComponent9AnimationEEENS_4lessIS7_EELb1EEEEC1B8ne180100IiRKSF_EEOT_OT0_, symObjAddr: 0x1014, symBinAddr: 0x100014F80, symSize: 0x3C }
  - { offset: 0x98917, size: 0x8, addend: 0x0, symName: __ZNSt3__16__treeINS_12__value_typeINS_12basic_stringIcNS_11char_traitsIcEENS_9allocatorIcEEEEPN18AnimationComponent9AnimationEEENS_19__map_value_compareIS7_SB_NS_4lessIS7_EELb1EEENS5_ISB_EEE10__end_nodeB8ne180100Ev, symObjAddr: 0x1050, symBinAddr: 0x100014FBC, symSize: 0x2C }
  - { offset: 0x9893D, size: 0x8, addend: 0x0, symName: __ZNSt3__16__treeINS_12__value_typeINS_12basic_stringIcNS_11char_traitsIcEENS_9allocatorIcEEEEPN18AnimationComponent9AnimationEEENS_19__map_value_compareIS7_SB_NS_4lessIS7_EELb1EEENS5_ISB_EEE12__begin_nodeB8ne180100Ev, symObjAddr: 0x107C, symBinAddr: 0x100014FE8, symSize: 0x14 }
  - { offset: 0x98963, size: 0x8, addend: 0x0, symName: __ZNSt3__117__compressed_pairINS_15__tree_end_nodeIPNS_16__tree_node_baseIPvEEEENS_9allocatorINS_11__tree_nodeINS_12__value_typeINS_12basic_stringIcNS_11char_traitsIcEENS7_IcEEEEPN18AnimationComponent9AnimationEEES3_EEEEEC2B8ne180100ILb1EvEEv, symObjAddr: 0x1090, symBinAddr: 0x100014FFC, symSize: 0x34 }
  - { offset: 0x98998, size: 0x8, addend: 0x0, symName: __ZNSt3__122__compressed_pair_elemINS_9allocatorINS_11__tree_nodeINS_12__value_typeINS_12basic_stringIcNS_11char_traitsIcEENS1_IcEEEEPN18AnimationComponent9AnimationEEEPvEEEELi1ELb1EEC2B8ne180100ENS_16__value_init_tagE, symObjAddr: 0x10F0, symBinAddr: 0x100015030, symSize: 0x2C }
  - { offset: 0x989CD, size: 0x8, addend: 0x0, symName: __ZNSt3__19allocatorINS_11__tree_nodeINS_12__value_typeINS_12basic_stringIcNS_11char_traitsIcEENS0_IcEEEEPN18AnimationComponent9AnimationEEEPvEEEC2B8ne180100Ev, symObjAddr: 0x1160, symBinAddr: 0x10001505C, symSize: 0x2C }
  - { offset: 0x989F7, size: 0x8, addend: 0x0, symName: __ZNSt3__116__non_trivial_ifILb1ENS_9allocatorINS_11__tree_nodeINS_12__value_typeINS_12basic_stringIcNS_11char_traitsIcEENS1_IcEEEEPN18AnimationComponent9AnimationEEEPvEEEEEC2B8ne180100Ev, symObjAddr: 0x118C, symBinAddr: 0x100015088, symSize: 0x14 }
  - { offset: 0x98A21, size: 0x8, addend: 0x0, symName: __ZNSt3__117__compressed_pairImNS_19__map_value_compareINS_12basic_stringIcNS_11char_traitsIcEENS_9allocatorIcEEEENS_12__value_typeIS7_PN18AnimationComponent9AnimationEEENS_4lessIS7_EELb1EEEEC2B8ne180100IiRKSF_EEOT_OT0_, symObjAddr: 0x11A0, symBinAddr: 0x10001509C, symSize: 0x44 }
  - { offset: 0x98A79, size: 0x8, addend: 0x0, symName: __ZNSt3__122__compressed_pair_elemINS_19__map_value_compareINS_12basic_stringIcNS_11char_traitsIcEENS_9allocatorIcEEEENS_12__value_typeIS7_PN18AnimationComponent9AnimationEEENS_4lessIS7_EELb1EEELi1ELb1EEC2B8ne180100IRKSF_vEEOT_, symObjAddr: 0x1208, symBinAddr: 0x1000150E0, symSize: 0x18 }
  - { offset: 0x98ABB, size: 0x8, addend: 0x0, symName: __ZNSt3__117__compressed_pairINS_15__tree_end_nodeIPNS_16__tree_node_baseIPvEEEENS_9allocatorINS_11__tree_nodeINS_12__value_typeINS_12basic_stringIcNS_11char_traitsIcEENS7_IcEEEEPN18AnimationComponent9AnimationEEES3_EEEEE5firstB8ne180100Ev, symObjAddr: 0x1234, symBinAddr: 0x1000150F8, symSize: 0x24 }
  - { offset: 0x98AE1, size: 0x8, addend: 0x0, symName: __ZNSt3__13mapINS_12basic_stringIcNS_11char_traitsIcEENS_9allocatorIcEEEEPN18AnimationComponent9AnimationENS_4lessIS6_EENS4_INS_4pairIKS6_S9_EEEEED2B8ne180100Ev, symObjAddr: 0x126C, symBinAddr: 0x10001511C, symSize: 0x2C }
  - { offset: 0x98B0B, size: 0x8, addend: 0x0, symName: __ZNSt3__16__treeINS_12__value_typeINS_12basic_stringIcNS_11char_traitsIcEENS_9allocatorIcEEEEPN18AnimationComponent9AnimationEEENS_19__map_value_compareIS7_SB_NS_4lessIS7_EELb1EEENS5_ISB_EEED1Ev, symObjAddr: 0x1298, symBinAddr: 0x100015148, symSize: 0x2C }
  - { offset: 0x98B37, size: 0x8, addend: 0x0, symName: __ZNSt3__16__treeINS_12__value_typeINS_12basic_stringIcNS_11char_traitsIcEENS_9allocatorIcEEEEPN18AnimationComponent9AnimationEEENS_19__map_value_compareIS7_SB_NS_4lessIS7_EELb1EEENS5_ISB_EEED2Ev, symObjAddr: 0x12C4, symBinAddr: 0x100015174, symSize: 0x38 }
  - { offset: 0x98B63, size: 0x8, addend: 0x0, symName: __ZNSt3__16__treeINS_12__value_typeINS_12basic_stringIcNS_11char_traitsIcEENS_9allocatorIcEEEEPN18AnimationComponent9AnimationEEENS_19__map_value_compareIS7_SB_NS_4lessIS7_EELb1EEENS5_ISB_EEE7destroyEPNS_11__tree_nodeISB_PvEE, symObjAddr: 0x12FC, symBinAddr: 0x1000151AC, symSize: 0xA4 }
  - { offset: 0x98BB0, size: 0x8, addend: 0x0, symName: __ZNKSt3__16__treeINS_12__value_typeINS_12basic_stringIcNS_11char_traitsIcEENS_9allocatorIcEEEEPN18AnimationComponent9AnimationEEENS_19__map_value_compareIS7_SB_NS_4lessIS7_EELb1EEENS5_ISB_EEE6__rootB8ne180100Ev, symObjAddr: 0x13A0, symBinAddr: 0x100015250, symSize: 0x28 }
  - { offset: 0x98BD6, size: 0x8, addend: 0x0, symName: __ZNSt3__16__treeINS_12__value_typeINS_12basic_stringIcNS_11char_traitsIcEENS_9allocatorIcEEEEPN18AnimationComponent9AnimationEEENS_19__map_value_compareIS7_SB_NS_4lessIS7_EELb1EEENS5_ISB_EEE12__node_allocB8ne180100Ev, symObjAddr: 0x13C8, symBinAddr: 0x100015278, symSize: 0x28 }
  - { offset: 0x98BFC, size: 0x8, addend: 0x0, symName: __ZNSt3__116allocator_traitsINS_9allocatorINS_11__tree_nodeINS_12__value_typeINS_12basic_stringIcNS_11char_traitsIcEENS1_IcEEEEPN18AnimationComponent9AnimationEEEPvEEEEE7destroyB8ne180100INS_4pairIKS8_SB_EEvvEEvRSF_PT_, symObjAddr: 0x13F0, symBinAddr: 0x1000152A0, symSize: 0x28 }
  - { offset: 0x98C37, size: 0x8, addend: 0x0, symName: __ZNSt3__122__tree_key_value_typesINS_12__value_typeINS_12basic_stringIcNS_11char_traitsIcEENS_9allocatorIcEEEEPN18AnimationComponent9AnimationEEEE9__get_ptrB8ne180100ERSB_, symObjAddr: 0x1418, symBinAddr: 0x1000152C8, symSize: 0x24 }
  - { offset: 0x98C5B, size: 0x8, addend: 0x0, symName: __ZNSt3__116allocator_traitsINS_9allocatorINS_11__tree_nodeINS_12__value_typeINS_12basic_stringIcNS_11char_traitsIcEENS1_IcEEEEPN18AnimationComponent9AnimationEEEPvEEEEE10deallocateB8ne180100ERSF_PSE_m, symObjAddr: 0x143C, symBinAddr: 0x1000152EC, symSize: 0x34 }
  - { offset: 0x98C9D, size: 0x8, addend: 0x0, symName: __ZNSt3__117__compressed_pairINS_15__tree_end_nodeIPNS_16__tree_node_baseIPvEEEENS_9allocatorINS_11__tree_nodeINS_12__value_typeINS_12basic_stringIcNS_11char_traitsIcEENS7_IcEEEEPN18AnimationComponent9AnimationEEES3_EEEEE6secondB8ne180100Ev, symObjAddr: 0x1470, symBinAddr: 0x100015320, symSize: 0x24 }
  - { offset: 0x98CC3, size: 0x8, addend: 0x0, symName: __ZNSt3__122__compressed_pair_elemINS_9allocatorINS_11__tree_nodeINS_12__value_typeINS_12basic_stringIcNS_11char_traitsIcEENS1_IcEEEEPN18AnimationComponent9AnimationEEEPvEEEELi1ELb1EE5__getB8ne180100Ev, symObjAddr: 0x1494, symBinAddr: 0x100015344, symSize: 0x14 }
  - { offset: 0x98CE9, size: 0x8, addend: 0x0, symName: __ZNSt3__14pairIKNS_12basic_stringIcNS_11char_traitsIcEENS_9allocatorIcEEEEPN18AnimationComponent9AnimationEED1Ev, symObjAddr: 0x14CC, symBinAddr: 0x10001537C, symSize: 0x2C }
  - { offset: 0x98D15, size: 0x8, addend: 0x0, symName: __ZNSt3__14pairIKNS_12basic_stringIcNS_11char_traitsIcEENS_9allocatorIcEEEEPN18AnimationComponent9AnimationEED2Ev, symObjAddr: 0x14F8, symBinAddr: 0x1000153A8, symSize: 0x2C }
  - { offset: 0x98D41, size: 0x8, addend: 0x0, symName: __ZNSt3__112__value_typeINS_12basic_stringIcNS_11char_traitsIcEENS_9allocatorIcEEEEPN18AnimationComponent9AnimationEE11__get_valueB8ne180100Ev, symObjAddr: 0x1524, symBinAddr: 0x1000153D4, symSize: 0x24 }
  - { offset: 0x98D67, size: 0x8, addend: 0x0, symName: __ZNSt3__19allocatorINS_11__tree_nodeINS_12__value_typeINS_12basic_stringIcNS_11char_traitsIcEENS0_IcEEEEPN18AnimationComponent9AnimationEEEPvEEE10deallocateB8ne180100EPSD_m, symObjAddr: 0x1580, symBinAddr: 0x100015430, symSize: 0x40 }
  - { offset: 0x98DA9, size: 0x8, addend: 0x0, symName: __ZNKSt3__16__treeINS_12__value_typeINS_12basic_stringIcNS_11char_traitsIcEENS_9allocatorIcEEEEPN18AnimationComponent9AnimationEEENS_19__map_value_compareIS7_SB_NS_4lessIS7_EELb1EEENS5_ISB_EEE10__end_nodeB8ne180100Ev, symObjAddr: 0x16E4, symBinAddr: 0x100015470, symSize: 0x2C }
  - { offset: 0x98DCF, size: 0x8, addend: 0x0, symName: __ZNKSt3__117__compressed_pairINS_15__tree_end_nodeIPNS_16__tree_node_baseIPvEEEENS_9allocatorINS_11__tree_nodeINS_12__value_typeINS_12basic_stringIcNS_11char_traitsIcEENS7_IcEEEEPN18AnimationComponent9AnimationEEES3_EEEEE5firstB8ne180100Ev, symObjAddr: 0x1710, symBinAddr: 0x10001549C, symSize: 0x24 }
  - { offset: 0x98E04, size: 0x8, addend: 0x0, symName: __ZNSt3__16__treeINS_12__value_typeINS_12basic_stringIcNS_11char_traitsIcEENS_9allocatorIcEEEEPN18AnimationComponent9AnimationEEENS_19__map_value_compareIS7_SB_NS_4lessIS7_EELb1EEENS5_ISB_EEE25__emplace_unique_key_argsIS7_JRKNS_21piecewise_construct_tENS_5tupleIJRKS7_EEENSM_IJEEEEEENS_4pairINS_15__tree_iteratorISB_PNS_11__tree_nodeISB_PvEElEEbEERKT_DpOT0_, symObjAddr: 0x1748, symBinAddr: 0x1000154C0, symSize: 0xF8 }
  - { offset: 0x98EDD, size: 0x8, addend: 0x0, symName: __ZNKSt3__115__tree_iteratorINS_12__value_typeINS_12basic_stringIcNS_11char_traitsIcEENS_9allocatorIcEEEEPN18AnimationComponent9AnimationEEEPNS_11__tree_nodeISB_PvEElEptB8ne180100Ev, symObjAddr: 0x1870, symBinAddr: 0x1000155B8, symSize: 0x2C }
  - { offset: 0x98F03, size: 0x8, addend: 0x0, symName: __ZNSt3__16__treeINS_12__value_typeINS_12basic_stringIcNS_11char_traitsIcEENS_9allocatorIcEEEEPN18AnimationComponent9AnimationEEENS_19__map_value_compareIS7_SB_NS_4lessIS7_EELb1EEENS5_ISB_EEE12__find_equalIS7_EERPNS_16__tree_node_baseIPvEERPNS_15__tree_end_nodeISM_EERKT_, symObjAddr: 0x189C, symBinAddr: 0x1000155E4, symSize: 0x16C }
  - { offset: 0x98F6E, size: 0x8, addend: 0x0, symName: __ZNSt3__16__treeINS_12__value_typeINS_12basic_stringIcNS_11char_traitsIcEENS_9allocatorIcEEEEPN18AnimationComponent9AnimationEEENS_19__map_value_compareIS7_SB_NS_4lessIS7_EELb1EEENS5_ISB_EEE16__construct_nodeIJRKNS_21piecewise_construct_tENS_5tupleIJRKS7_EEENSM_IJEEEEEENS_10unique_ptrINS_11__tree_nodeISB_PvEENS_22__tree_node_destructorINS5_ISU_EEEEEEDpOT_, symObjAddr: 0x1A08, symBinAddr: 0x100015750, symSize: 0x120 }
  - { offset: 0x98FF9, size: 0x8, addend: 0x0, symName: __ZNSt3__16__treeINS_12__value_typeINS_12basic_stringIcNS_11char_traitsIcEENS_9allocatorIcEEEEPN18AnimationComponent9AnimationEEENS_19__map_value_compareIS7_SB_NS_4lessIS7_EELb1EEENS5_ISB_EEE16__insert_node_atEPNS_15__tree_end_nodeIPNS_16__tree_node_baseIPvEEEERSM_SM_, symObjAddr: 0x1B28, symBinAddr: 0x100015870, symSize: 0xC4 }
  - { offset: 0x9904E, size: 0x8, addend: 0x0, symName: __ZNKSt3__110unique_ptrINS_11__tree_nodeINS_12__value_typeINS_12basic_stringIcNS_11char_traitsIcEENS_9allocatorIcEEEEPN18AnimationComponent9AnimationEEEPvEENS_22__tree_node_destructorINS6_ISE_EEEEE3getB8ne180100Ev, symObjAddr: 0x1BEC, symBinAddr: 0x100015934, symSize: 0x28 }
  - { offset: 0x99074, size: 0x8, addend: 0x0, symName: __ZNSt3__110unique_ptrINS_11__tree_nodeINS_12__value_typeINS_12basic_stringIcNS_11char_traitsIcEENS_9allocatorIcEEEEPN18AnimationComponent9AnimationEEEPvEENS_22__tree_node_destructorINS6_ISE_EEEEE7releaseB8ne180100Ev, symObjAddr: 0x1C14, symBinAddr: 0x10001595C, symSize: 0x44 }
  - { offset: 0x990A9, size: 0x8, addend: 0x0, symName: __ZNSt3__110unique_ptrINS_11__tree_nodeINS_12__value_typeINS_12basic_stringIcNS_11char_traitsIcEENS_9allocatorIcEEEEPN18AnimationComponent9AnimationEEEPvEENS_22__tree_node_destructorINS6_ISE_EEEEED1B8ne180100Ev, symObjAddr: 0x1C58, symBinAddr: 0x1000159A0, symSize: 0x2C }
  - { offset: 0x990D3, size: 0x8, addend: 0x0, symName: __ZNSt3__115__tree_iteratorINS_12__value_typeINS_12basic_stringIcNS_11char_traitsIcEENS_9allocatorIcEEEEPN18AnimationComponent9AnimationEEEPNS_11__tree_nodeISB_PvEElEC1B8ne180100ESF_, symObjAddr: 0x1C84, symBinAddr: 0x1000159CC, symSize: 0x34 }
  - { offset: 0x99116, size: 0x8, addend: 0x0, symName: __ZNSt3__14pairINS_15__tree_iteratorINS_12__value_typeINS_12basic_stringIcNS_11char_traitsIcEENS_9allocatorIcEEEEPN18AnimationComponent9AnimationEEEPNS_11__tree_nodeISC_PvEElEEbEC1B8ne180100ISH_RbTnNS_9enable_ifIXclsr10_CheckArgsE17__enable_implicitIT_T0_EEEiE4typeELi0EEEOSM_OSN_, symObjAddr: 0x1CB8, symBinAddr: 0x100015A00, symSize: 0x3C }
  - { offset: 0x99174, size: 0x8, addend: 0x0, symName: __ZNKSt3__16__treeINS_12__value_typeINS_12basic_stringIcNS_11char_traitsIcEENS_9allocatorIcEEEEPN18AnimationComponent9AnimationEEENS_19__map_value_compareIS7_SB_NS_4lessIS7_EELb1EEENS5_ISB_EEE10__root_ptrB8ne180100Ev, symObjAddr: 0x1CF4, symBinAddr: 0x100015A3C, symSize: 0x24 }
  - { offset: 0x9919A, size: 0x8, addend: 0x0, symName: __ZNSt3__16__treeINS_12__value_typeINS_12basic_stringIcNS_11char_traitsIcEENS_9allocatorIcEEEEPN18AnimationComponent9AnimationEEENS_19__map_value_compareIS7_SB_NS_4lessIS7_EELb1EEENS5_ISB_EEE10value_compB8ne180100Ev, symObjAddr: 0x1D18, symBinAddr: 0x100015A60, symSize: 0x28 }
  - { offset: 0x991C0, size: 0x8, addend: 0x0, symName: __ZNKSt3__119__map_value_compareINS_12basic_stringIcNS_11char_traitsIcEENS_9allocatorIcEEEENS_12__value_typeIS6_PN18AnimationComponent9AnimationEEENS_4lessIS6_EELb1EEclB8ne180100ERKS6_RKSB_, symObjAddr: 0x1D40, symBinAddr: 0x100015A88, symSize: 0x4C }
  - { offset: 0x99204, size: 0x8, addend: 0x0, symName: __ZNKSt3__119__map_value_compareINS_12basic_stringIcNS_11char_traitsIcEENS_9allocatorIcEEEENS_12__value_typeIS6_PN18AnimationComponent9AnimationEEENS_4lessIS6_EELb1EEclB8ne180100ERKSB_RKS6_, symObjAddr: 0x1D8C, symBinAddr: 0x100015AD4, symSize: 0x44 }
  - { offset: 0x99248, size: 0x8, addend: 0x0, symName: __ZNSt3__117__compressed_pairImNS_19__map_value_compareINS_12basic_stringIcNS_11char_traitsIcEENS_9allocatorIcEEEENS_12__value_typeIS7_PN18AnimationComponent9AnimationEEENS_4lessIS7_EELb1EEEE6secondB8ne180100Ev, symObjAddr: 0x1DD0, symBinAddr: 0x100015B18, symSize: 0x24 }
  - { offset: 0x9926E, size: 0x8, addend: 0x0, symName: __ZNSt3__122__compressed_pair_elemINS_19__map_value_compareINS_12basic_stringIcNS_11char_traitsIcEENS_9allocatorIcEEEENS_12__value_typeIS7_PN18AnimationComponent9AnimationEEENS_4lessIS7_EELb1EEELi1ELb1EE5__getB8ne180100Ev, symObjAddr: 0x1DF4, symBinAddr: 0x100015B3C, symSize: 0x14 }
  - { offset: 0x99294, size: 0x8, addend: 0x0, symName: __ZNKSt3__112__value_typeINS_12basic_stringIcNS_11char_traitsIcEENS_9allocatorIcEEEEPN18AnimationComponent9AnimationEE11__get_valueB8ne180100Ev, symObjAddr: 0x1E38, symBinAddr: 0x100015B50, symSize: 0x24 }
  - { offset: 0x992BA, size: 0x8, addend: 0x0, symName: __ZNSt3__116allocator_traitsINS_9allocatorINS_11__tree_nodeINS_12__value_typeINS_12basic_stringIcNS_11char_traitsIcEENS1_IcEEEEPN18AnimationComponent9AnimationEEEPvEEEEE8allocateB8ne180100ERSF_m, symObjAddr: 0x240C, symBinAddr: 0x100015BAC, symSize: 0x2C }
  - { offset: 0x992ED, size: 0x8, addend: 0x0, symName: __ZNSt3__122__tree_node_destructorINS_9allocatorINS_11__tree_nodeINS_12__value_typeINS_12basic_stringIcNS_11char_traitsIcEENS1_IcEEEEPN18AnimationComponent9AnimationEEEPvEEEEEC1B8ne180100ERSF_b, symObjAddr: 0x2438, symBinAddr: 0x100015BD8, symSize: 0x40 }
  - { offset: 0x9933A, size: 0x8, addend: 0x0, symName: __ZNSt3__110unique_ptrINS_11__tree_nodeINS_12__value_typeINS_12basic_stringIcNS_11char_traitsIcEENS_9allocatorIcEEEEPN18AnimationComponent9AnimationEEEPvEENS_22__tree_node_destructorINS6_ISE_EEEEEC1B8ne180100ILb1EvEEPSE_NS_16__dependent_typeINS_27__unique_ptr_deleter_sfinaeISH_EEXT_EE20__good_rval_ref_typeE, symObjAddr: 0x2478, symBinAddr: 0x100015C18, symSize: 0x3C }
  - { offset: 0x9938B, size: 0x8, addend: 0x0, symName: __ZNSt3__116allocator_traitsINS_9allocatorINS_11__tree_nodeINS_12__value_typeINS_12basic_stringIcNS_11char_traitsIcEENS1_IcEEEEPN18AnimationComponent9AnimationEEEPvEEEEE9constructB8ne180100INS_4pairIKS8_SB_EEJRKNS_21piecewise_construct_tENS_5tupleIJRSJ_EEENSO_IJEEEEvEEvRSF_PT_DpOT0_, symObjAddr: 0x24B4, symBinAddr: 0x100015C54, symSize: 0x44 }
  - { offset: 0x9940E, size: 0x8, addend: 0x0, symName: __ZNKSt3__110unique_ptrINS_11__tree_nodeINS_12__value_typeINS_12basic_stringIcNS_11char_traitsIcEENS_9allocatorIcEEEEPN18AnimationComponent9AnimationEEEPvEENS_22__tree_node_destructorINS6_ISE_EEEEEptB8ne180100Ev, symObjAddr: 0x24F8, symBinAddr: 0x100015C98, symSize: 0x28 }
  - { offset: 0x99434, size: 0x8, addend: 0x0, symName: __ZNSt3__110unique_ptrINS_11__tree_nodeINS_12__value_typeINS_12basic_stringIcNS_11char_traitsIcEENS_9allocatorIcEEEEPN18AnimationComponent9AnimationEEEPvEENS_22__tree_node_destructorINS6_ISE_EEEEE11get_deleterB8ne180100Ev, symObjAddr: 0x2520, symBinAddr: 0x100015CC0, symSize: 0x24 }
  - { offset: 0x9945A, size: 0x8, addend: 0x0, symName: __ZNSt3__19allocatorINS_11__tree_nodeINS_12__value_typeINS_12basic_stringIcNS_11char_traitsIcEENS0_IcEEEEPN18AnimationComponent9AnimationEEEPvEEE8allocateB8ne180100Em, symObjAddr: 0x2544, symBinAddr: 0x100015CE4, symSize: 0x54 }
  - { offset: 0x99498, size: 0x8, addend: 0x0, symName: __ZNSt3__116allocator_traitsINS_9allocatorINS_11__tree_nodeINS_12__value_typeINS_12basic_stringIcNS_11char_traitsIcEENS1_IcEEEEPN18AnimationComponent9AnimationEEEPvEEEEE8max_sizeB8ne180100ISF_vEEmRKSF_, symObjAddr: 0x2598, symBinAddr: 0x100015D38, symSize: 0x24 }
  - { offset: 0x994C6, size: 0x8, addend: 0x0, symName: __ZNKSt3__19allocatorINS_11__tree_nodeINS_12__value_typeINS_12basic_stringIcNS_11char_traitsIcEENS0_IcEEEEPN18AnimationComponent9AnimationEEEPvEEE8max_sizeB8ne180100Ev, symObjAddr: 0x2650, symBinAddr: 0x100015D5C, symSize: 0x14 }
  - { offset: 0x994EC, size: 0x8, addend: 0x0, symName: __ZNSt3__122__tree_node_destructorINS_9allocatorINS_11__tree_nodeINS_12__value_typeINS_12basic_stringIcNS_11char_traitsIcEENS1_IcEEEEPN18AnimationComponent9AnimationEEEPvEEEEEC2B8ne180100ERSF_b, symObjAddr: 0x26B4, symBinAddr: 0x100015D70, symSize: 0x30 }
  - { offset: 0x99534, size: 0x8, addend: 0x0, symName: __ZNSt3__110unique_ptrINS_11__tree_nodeINS_12__value_typeINS_12basic_stringIcNS_11char_traitsIcEENS_9allocatorIcEEEEPN18AnimationComponent9AnimationEEEPvEENS_22__tree_node_destructorINS6_ISE_EEEEEC2B8ne180100ILb1EvEEPSE_NS_16__dependent_typeINS_27__unique_ptr_deleter_sfinaeISH_EEXT_EE20__good_rval_ref_typeE, symObjAddr: 0x26E4, symBinAddr: 0x100015DA0, symSize: 0x48 }
  - { offset: 0x99585, size: 0x8, addend: 0x0, symName: __ZNSt3__117__compressed_pairIPNS_11__tree_nodeINS_12__value_typeINS_12basic_stringIcNS_11char_traitsIcEENS_9allocatorIcEEEEPN18AnimationComponent9AnimationEEEPvEENS_22__tree_node_destructorINS6_ISE_EEEEEC1B8ne180100IRSF_SI_EEOT_OT0_, symObjAddr: 0x272C, symBinAddr: 0x100015DE8, symSize: 0x3C }
  - { offset: 0x995DD, size: 0x8, addend: 0x0, symName: __ZNSt3__117__compressed_pairIPNS_11__tree_nodeINS_12__value_typeINS_12basic_stringIcNS_11char_traitsIcEENS_9allocatorIcEEEEPN18AnimationComponent9AnimationEEEPvEENS_22__tree_node_destructorINS6_ISE_EEEEEC2B8ne180100IRSF_SI_EEOT_OT0_, symObjAddr: 0x2768, symBinAddr: 0x100015E24, symSize: 0x48 }
  - { offset: 0x99635, size: 0x8, addend: 0x0, symName: __ZNSt3__122__compressed_pair_elemIPNS_11__tree_nodeINS_12__value_typeINS_12basic_stringIcNS_11char_traitsIcEENS_9allocatorIcEEEEPN18AnimationComponent9AnimationEEEPvEELi0ELb0EEC2B8ne180100IRSF_vEEOT_, symObjAddr: 0x27B0, symBinAddr: 0x100015E6C, symSize: 0x24 }
  - { offset: 0x99677, size: 0x8, addend: 0x0, symName: __ZNSt3__122__compressed_pair_elemINS_22__tree_node_destructorINS_9allocatorINS_11__tree_nodeINS_12__value_typeINS_12basic_stringIcNS_11char_traitsIcEENS2_IcEEEEPN18AnimationComponent9AnimationEEEPvEEEEEELi1ELb0EEC2B8ne180100ISH_vEEOT_, symObjAddr: 0x27D4, symBinAddr: 0x100015E90, symSize: 0x24 }
  - { offset: 0x996B9, size: 0x8, addend: 0x0, symName: __ZNSt3__19allocatorINS_11__tree_nodeINS_12__value_typeINS_12basic_stringIcNS_11char_traitsIcEENS0_IcEEEEPN18AnimationComponent9AnimationEEEPvEEE9constructB8ne180100INS_4pairIKS7_SA_EEJRKNS_21piecewise_construct_tENS_5tupleIJRSH_EEENSM_IJEEEEEEvPT_DpOT0_, symObjAddr: 0x27F8, symBinAddr: 0x100015EB4, symSize: 0x44 }
  - { offset: 0x99739, size: 0x8, addend: 0x0, symName: __ZNSt3__14pairIKNS_12basic_stringIcNS_11char_traitsIcEENS_9allocatorIcEEEEPN18AnimationComponent9AnimationEEC1B8ne180100IJRS7_EJEEENS_21piecewise_construct_tENS_5tupleIJDpT_EEENSF_IJDpT0_EEE, symObjAddr: 0x283C, symBinAddr: 0x100015EF8, symSize: 0x3C }
  - { offset: 0x997A3, size: 0x8, addend: 0x0, symName: __ZNSt3__14pairIKNS_12basic_stringIcNS_11char_traitsIcEENS_9allocatorIcEEEEPN18AnimationComponent9AnimationEEC1B8ne180100IJRS7_EJEJLm0EETpTnmJEEENS_21piecewise_construct_tERNS_5tupleIJDpT_EEERNSF_IJDpT0_EEENS_15__tuple_indicesIJXspT1_EEEENSO_IJXspT2_EEEE, symObjAddr: 0x2878, symBinAddr: 0x100015F34, symSize: 0x3C }
  - { offset: 0x99836, size: 0x8, addend: 0x0, symName: __ZNSt3__14pairIKNS_12basic_stringIcNS_11char_traitsIcEENS_9allocatorIcEEEEPN18AnimationComponent9AnimationEEC2B8ne180100IJRS7_EJEJLm0EETpTnmJEEENS_21piecewise_construct_tERNS_5tupleIJDpT_EEERNSF_IJDpT0_EEENS_15__tuple_indicesIJXspT1_EEEENSO_IJXspT2_EEEE, symObjAddr: 0x28B4, symBinAddr: 0x100015F70, symSize: 0x48 }
  - { offset: 0x998C9, size: 0x8, addend: 0x0, symName: __ZNKSt3__117__compressed_pairIPNS_11__tree_nodeINS_12__value_typeINS_12basic_stringIcNS_11char_traitsIcEENS_9allocatorIcEEEEPN18AnimationComponent9AnimationEEEPvEENS_22__tree_node_destructorINS6_ISE_EEEEE5firstB8ne180100Ev, symObjAddr: 0x2938, symBinAddr: 0x100015FB8, symSize: 0x24 }
  - { offset: 0x998EF, size: 0x8, addend: 0x0, symName: __ZNKSt3__122__compressed_pair_elemIPNS_11__tree_nodeINS_12__value_typeINS_12basic_stringIcNS_11char_traitsIcEENS_9allocatorIcEEEEPN18AnimationComponent9AnimationEEEPvEELi0ELb0EE5__getB8ne180100Ev, symObjAddr: 0x295C, symBinAddr: 0x100015FDC, symSize: 0x14 }
  - { offset: 0x99915, size: 0x8, addend: 0x0, symName: __ZNSt3__117__compressed_pairIPNS_11__tree_nodeINS_12__value_typeINS_12basic_stringIcNS_11char_traitsIcEENS_9allocatorIcEEEEPN18AnimationComponent9AnimationEEEPvEENS_22__tree_node_destructorINS6_ISE_EEEEE6secondB8ne180100Ev, symObjAddr: 0x2970, symBinAddr: 0x100015FF0, symSize: 0x28 }
  - { offset: 0x9993B, size: 0x8, addend: 0x0, symName: __ZNSt3__122__compressed_pair_elemINS_22__tree_node_destructorINS_9allocatorINS_11__tree_nodeINS_12__value_typeINS_12basic_stringIcNS_11char_traitsIcEENS2_IcEEEEPN18AnimationComponent9AnimationEEEPvEEEEEELi1ELb0EE5__getB8ne180100Ev, symObjAddr: 0x2998, symBinAddr: 0x100016018, symSize: 0x14 }
  - { offset: 0x99961, size: 0x8, addend: 0x0, symName: __ZNSt3__16__treeINS_12__value_typeINS_12basic_stringIcNS_11char_traitsIcEENS_9allocatorIcEEEEPN18AnimationComponent9AnimationEEENS_19__map_value_compareIS7_SB_NS_4lessIS7_EELb1EEENS5_ISB_EEE4sizeB8ne180100Ev, symObjAddr: 0x2CB8, symBinAddr: 0x10001602C, symSize: 0x28 }
  - { offset: 0x99987, size: 0x8, addend: 0x0, symName: __ZNSt3__117__compressed_pairImNS_19__map_value_compareINS_12basic_stringIcNS_11char_traitsIcEENS_9allocatorIcEEEENS_12__value_typeIS7_PN18AnimationComponent9AnimationEEENS_4lessIS7_EELb1EEEE5firstB8ne180100Ev, symObjAddr: 0x2ED4, symBinAddr: 0x100016054, symSize: 0x24 }
  - { offset: 0x999AD, size: 0x8, addend: 0x0, symName: __ZNSt3__117__compressed_pairIPNS_11__tree_nodeINS_12__value_typeINS_12basic_stringIcNS_11char_traitsIcEENS_9allocatorIcEEEEPN18AnimationComponent9AnimationEEEPvEENS_22__tree_node_destructorINS6_ISE_EEEEE5firstB8ne180100Ev, symObjAddr: 0x2F0C, symBinAddr: 0x100016078, symSize: 0x24 }
  - { offset: 0x999D3, size: 0x8, addend: 0x0, symName: __ZNSt3__122__compressed_pair_elemIPNS_11__tree_nodeINS_12__value_typeINS_12basic_stringIcNS_11char_traitsIcEENS_9allocatorIcEEEEPN18AnimationComponent9AnimationEEEPvEELi0ELb0EE5__getB8ne180100Ev, symObjAddr: 0x2F30, symBinAddr: 0x10001609C, symSize: 0x14 }
  - { offset: 0x999F9, size: 0x8, addend: 0x0, symName: __ZNSt3__110unique_ptrINS_11__tree_nodeINS_12__value_typeINS_12basic_stringIcNS_11char_traitsIcEENS_9allocatorIcEEEEPN18AnimationComponent9AnimationEEEPvEENS_22__tree_node_destructorINS6_ISE_EEEEED2B8ne180100Ev, symObjAddr: 0x2F44, symBinAddr: 0x1000160B0, symSize: 0x30 }
  - { offset: 0x99A23, size: 0x8, addend: 0x0, symName: __ZNSt3__110unique_ptrINS_11__tree_nodeINS_12__value_typeINS_12basic_stringIcNS_11char_traitsIcEENS_9allocatorIcEEEEPN18AnimationComponent9AnimationEEEPvEENS_22__tree_node_destructorINS6_ISE_EEEEE5resetB8ne180100EPSE_, symObjAddr: 0x2F74, symBinAddr: 0x1000160E0, symSize: 0x70 }
  - { offset: 0x99A67, size: 0x8, addend: 0x0, symName: __ZNSt3__122__tree_node_destructorINS_9allocatorINS_11__tree_nodeINS_12__value_typeINS_12basic_stringIcNS_11char_traitsIcEENS1_IcEEEEPN18AnimationComponent9AnimationEEEPvEEEEEclB8ne180100EPSE_, symObjAddr: 0x2FE4, symBinAddr: 0x100016150, symSize: 0x90 }
  - { offset: 0x99A9C, size: 0x8, addend: 0x0, symName: __ZNSt3__115__tree_iteratorINS_12__value_typeINS_12basic_stringIcNS_11char_traitsIcEENS_9allocatorIcEEEEPN18AnimationComponent9AnimationEEEPNS_11__tree_nodeISB_PvEElEC2B8ne180100ESF_, symObjAddr: 0x3074, symBinAddr: 0x1000161E0, symSize: 0x20 }
  - { offset: 0x99AD5, size: 0x8, addend: 0x0, symName: __ZNSt3__14pairINS_15__tree_iteratorINS_12__value_typeINS_12basic_stringIcNS_11char_traitsIcEENS_9allocatorIcEEEEPN18AnimationComponent9AnimationEEEPNS_11__tree_nodeISC_PvEElEEbEC2B8ne180100ISH_RbTnNS_9enable_ifIXclsr10_CheckArgsE17__enable_implicitIT_T0_EEEiE4typeELi0EEEOSM_OSN_, symObjAddr: 0x3094, symBinAddr: 0x100016200, symSize: 0x38 }
  - { offset: 0x99B33, size: 0x8, addend: 0x0, symName: __ZNSt3__114pointer_traitsIPNS_12__value_typeINS_12basic_stringIcNS_11char_traitsIcEENS_9allocatorIcEEEEPN18AnimationComponent9AnimationEEEE10pointer_toB8ne180100ERSB_, symObjAddr: 0x31BC, symBinAddr: 0x100016238, symSize: 0x14 }
  - { offset: 0x99B56, size: 0x8, addend: 0x0, symName: __ZNKSt3__115__tree_iteratorINS_12__value_typeINS_12basic_stringIcNS_11char_traitsIcEENS_9allocatorIcEEEEPN18AnimationComponent9AnimationEEEPNS_11__tree_nodeISB_PvEElE8__get_npB8ne180100Ev, symObjAddr: 0x31D0, symBinAddr: 0x10001624C, symSize: 0x18 }
  - { offset: 0x99B7C, size: 0x8, addend: 0x0, symName: __ZNSt3__16__treeINS_12__value_typeINS_12basic_stringIcNS_11char_traitsIcEENS_9allocatorIcEEEEPN18AnimationComponent9AnimationEEENS_19__map_value_compareIS7_SB_NS_4lessIS7_EELb1EEENS5_ISB_EEE5beginB8ne180100Ev, symObjAddr: 0x31E8, symBinAddr: 0x100016264, symSize: 0x34 }
  - { offset: 0x99BA2, size: 0x8, addend: 0x0, symName: __ZNSt3__114__map_iteratorINS_15__tree_iteratorINS_12__value_typeINS_12basic_stringIcNS_11char_traitsIcEENS_9allocatorIcEEEEPN18AnimationComponent9AnimationEEEPNS_11__tree_nodeISC_PvEElEEEC1B8ne180100ESH_, symObjAddr: 0x321C, symBinAddr: 0x100016298, symSize: 0x34 }
  - { offset: 0x99BDB, size: 0x8, addend: 0x0, symName: __ZNSt3__115__tree_iteratorINS_12__value_typeINS_12basic_stringIcNS_11char_traitsIcEENS_9allocatorIcEEEEPN18AnimationComponent9AnimationEEEPNS_11__tree_nodeISB_PvEElEC1B8ne180100EPNS_15__tree_end_nodeIPNS_16__tree_node_baseISD_EEEE, symObjAddr: 0x3250, symBinAddr: 0x1000162CC, symSize: 0x34 }
  - { offset: 0x99C14, size: 0x8, addend: 0x0, symName: __ZNSt3__115__tree_iteratorINS_12__value_typeINS_12basic_stringIcNS_11char_traitsIcEENS_9allocatorIcEEEEPN18AnimationComponent9AnimationEEEPNS_11__tree_nodeISB_PvEElEC2B8ne180100EPNS_15__tree_end_nodeIPNS_16__tree_node_baseISD_EEEE, symObjAddr: 0x3284, symBinAddr: 0x100016300, symSize: 0x20 }
  - { offset: 0x99C4D, size: 0x8, addend: 0x0, symName: __ZNSt3__114__map_iteratorINS_15__tree_iteratorINS_12__value_typeINS_12basic_stringIcNS_11char_traitsIcEENS_9allocatorIcEEEEPN18AnimationComponent9AnimationEEEPNS_11__tree_nodeISC_PvEElEEEC2B8ne180100ESH_, symObjAddr: 0x32A4, symBinAddr: 0x100016320, symSize: 0x20 }
  - { offset: 0x99C86, size: 0x8, addend: 0x0, symName: __ZNSt3__16__treeINS_12__value_typeINS_12basic_stringIcNS_11char_traitsIcEENS_9allocatorIcEEEEPN18AnimationComponent9AnimationEEENS_19__map_value_compareIS7_SB_NS_4lessIS7_EELb1EEENS5_ISB_EEE3endB8ne180100Ev, symObjAddr: 0x32C4, symBinAddr: 0x100016340, symSize: 0x34 }
  - { offset: 0x99CAC, size: 0x8, addend: 0x0, symName: __ZNSt3__115__tree_iteratorINS_12__value_typeINS_12basic_stringIcNS_11char_traitsIcEENS_9allocatorIcEEEEPN18AnimationComponent9AnimationEEEPNS_11__tree_nodeISB_PvEElEppB8ne180100Ev, symObjAddr: 0x3354, symBinAddr: 0x1000163D0, symSize: 0x38 }
  - { offset: 0x9BA99, size: 0x8, addend: 0x0, symName: __ZN15HitboxComponentC2ERN2sf6SpriteEffff, symObjAddr: 0x0, symBinAddr: 0x100016408, symSize: 0x1AC }
  - { offset: 0x9C6BC, size: 0x8, addend: 0x0, symName: __ZN15HitboxComponentC2ERN2sf6SpriteEffff, symObjAddr: 0x0, symBinAddr: 0x100016408, symSize: 0x1AC }
  - { offset: 0x9C72E, size: 0x8, addend: 0x0, symName: __ZN15HitboxComponentC1ERN2sf6SpriteEffff, symObjAddr: 0x240, symBinAddr: 0x1000165B4, symSize: 0x54 }
  - { offset: 0x9C7A0, size: 0x8, addend: 0x0, symName: __ZN15HitboxComponentD2Ev, symObjAddr: 0x294, symBinAddr: 0x100016608, symSize: 0x30 }
  - { offset: 0x9C7CC, size: 0x8, addend: 0x0, symName: __ZN15HitboxComponentD1Ev, symObjAddr: 0x2C4, symBinAddr: 0x100016638, symSize: 0x2C }
  - { offset: 0x9C7F8, size: 0x8, addend: 0x0, symName: __ZN15HitboxComponent11isIntersectERKN2sf4RectIfEE, symObjAddr: 0x2F0, symBinAddr: 0x100016664, symSize: 0x78 }
  - { offset: 0x9C82E, size: 0x8, addend: 0x0, symName: __ZNK2sf4RectIfE10intersectsERKS1_, symObjAddr: 0x368, symBinAddr: 0x1000166DC, symSize: 0x44 }
  - { offset: 0x9C872, size: 0x8, addend: 0x0, symName: __ZN15HitboxComponent6updateEv, symObjAddr: 0x3AC, symBinAddr: 0x100016720, symSize: 0x5C }
  - { offset: 0x9C89A, size: 0x8, addend: 0x0, symName: __ZN15HitboxComponent4drawEPN2sf12RenderTargetE, symObjAddr: 0x408, symBinAddr: 0x10001677C, symSize: 0x38 }
  - { offset: 0x9C8D0, size: 0x8, addend: 0x0, symName: __ZN2sf4RectIfEC1Ev, symObjAddr: 0x4D4, symBinAddr: 0x1000167B4, symSize: 0x2C }
  - { offset: 0x9C8FC, size: 0x8, addend: 0x0, symName: __ZNK2sf4RectIfE10intersectsERKS1_RS1_, symObjAddr: 0x500, symBinAddr: 0x1000167E0, symSize: 0x2CC }
  - { offset: 0x9C9F0, size: 0x8, addend: 0x0, symName: __ZN2sf4RectIfEC2Ev, symObjAddr: 0x7CC, symBinAddr: 0x100016AAC, symSize: 0x28 }
  - { offset: 0x9CA1C, size: 0x8, addend: 0x0, symName: __ZN2sf4RectIfEC1Effff, symObjAddr: 0x84C, symBinAddr: 0x100016AD4, symSize: 0x4C }
  - { offset: 0x9CA80, size: 0x8, addend: 0x0, symName: __ZN2sf4RectIfEC2Effff, symObjAddr: 0x970, symBinAddr: 0x100016B20, symSize: 0x44 }
  - { offset: 0xA61CC, size: 0x8, addend: 0x0, symName: __ZNSt3__112__to_addressB8ne180100IN10ArrowStack5ArrowEEEPT_S4_, symObjAddr: 0x2068, symBinAddr: 0x100018A18, symSize: 0x14 }
  - { offset: 0xA6201, size: 0x8, addend: 0x0, symName: __ZNSt3__110__str_findB8ne180100IcmNS_11char_traitsIcEETnT0_Lm18446744073709551615EEES3_PKT_S3_S6_S3_S3_, symObjAddr: 0x28D8, symBinAddr: 0x100018C6C, symSize: 0xD4 }
  - { offset: 0xA62A8, size: 0x8, addend: 0x0, symName: __ZNSt3__118__search_substringB8ne180100IcNS_11char_traitsIcEEEEPKT_S5_S5_S5_S5_, symObjAddr: 0x2A5C, symBinAddr: 0x100018D40, symSize: 0x134 }
  - { offset: 0xA6343, size: 0x8, addend: 0x0, symName: __ZNSt3__118__constexpr_memchrB8ne180100IKccEEPT_S3_T0_m, symObjAddr: 0x2C2C, symBinAddr: 0x100018EDC, symSize: 0x40 }
  - { offset: 0xA63B9, size: 0x8, addend: 0x0, symName: __ZNSt3__17launderB8ne180100IKNS_4pairIKNS_12basic_stringIcNS_11char_traitsIcEENS_9allocatorIcEEEEP18AnimationComponentEEEEPT_SE_, symObjAddr: 0x4ED4, symBinAddr: 0x100019904, symSize: 0x24 }
  - { offset: 0xA63F0, size: 0x8, addend: 0x0, symName: __ZNSt3__19__launderB8ne180100IKNS_4pairIKNS_12basic_stringIcNS_11char_traitsIcEENS_9allocatorIcEEEEP18AnimationComponentEEEEPT_SE_, symObjAddr: 0x4EF8, symBinAddr: 0x100019928, symSize: 0x14 }
  - { offset: 0xA6FC2, size: 0x8, addend: 0x0, symName: __ZN2sfdvIfEENS_7Vector2IT_EERKS3_S2_, symObjAddr: 0x1AB8, symBinAddr: 0x100018478, symSize: 0x50 }
  - { offset: 0xA806B, size: 0x8, addend: 0x0, symName: __ZN6Player13initVariablesEv, symObjAddr: 0x0, symBinAddr: 0x100016B64, symSize: 0x88 }
  - { offset: 0xA8093, size: 0x8, addend: 0x0, symName: __ZN6Player12initTexturesEPNSt3__13mapINS0_12basic_stringIcNS0_11char_traitsIcEENS0_9allocatorIcEEEEPN2sf7TextureENS0_4lessIS7_EENS5_INS0_4pairIKS7_SA_EEEEEE, symObjAddr: 0x88, symBinAddr: 0x100016BEC, symSize: 0x19C }
  - { offset: 0xA8121, size: 0x8, addend: 0x0, symName: __ZNSt3__112basic_stringIcNS_11char_traitsIcEENS_9allocatorIcEEEC1B8ne180100Ev, symObjAddr: 0x224, symBinAddr: 0x100016D88, symSize: 0x2C }
  - { offset: 0xA814B, size: 0x8, addend: 0x0, symName: __ZNKSt3__112basic_stringIcNS_11char_traitsIcEENS_9allocatorIcEEE4findB8ne180100EPKcm, symObjAddr: 0x314, symBinAddr: 0x100016DB4, symSize: 0x74 }
  - { offset: 0xA8191, size: 0x8, addend: 0x0, symName: __ZNSt3__13mapINS_12basic_stringIcNS_11char_traitsIcEENS_9allocatorIcEEEEPN2sf7TextureENS_4lessIS6_EENS4_INS_4pairIKS6_S9_EEEEEixERSD_, symObjAddr: 0x388, symBinAddr: 0x100016E28, symSize: 0x80 }
  - { offset: 0xA81C8, size: 0x8, addend: 0x0, symName: __ZNSt3__13mapINS_12basic_stringIcNS_11char_traitsIcEENS_9allocatorIcEEEEP18AnimationComponentNS_4lessIS6_EENS4_INS_4pairIKS6_S8_EEEEEixERSC_, symObjAddr: 0x408, symBinAddr: 0x100016EA8, symSize: 0x80 }
  - { offset: 0xA81FF, size: 0x8, addend: 0x0, symName: __ZN6Player14initComponentsEv, symObjAddr: 0x4B4, symBinAddr: 0x100016F28, symSize: 0x810 }
  - { offset: 0xA822C, size: 0x8, addend: 0x0, symName: __ZNSt3__13mapINS_12basic_stringIcNS_11char_traitsIcEENS_9allocatorIcEEEEP18AnimationComponentNS_4lessIS6_EENS4_INS_4pairIKS6_S8_EEEEEixEOS6_, symObjAddr: 0xD78, symBinAddr: 0x100017738, symSize: 0x80 }
  - { offset: 0xA8263, size: 0x8, addend: 0x0, symName: __ZN6PlayerC2ERKN2sf7Vector2IfEEPNSt3__13mapINS5_12basic_stringIcNS5_11char_traitsIcEENS5_9allocatorIcEEEEPNS0_7TextureENS5_4lessISC_EENSA_INS5_4pairIKSC_SE_EEEEEE, symObjAddr: 0xDF8, symBinAddr: 0x1000177B8, symSize: 0xF8 }
  - { offset: 0xA82AB, size: 0x8, addend: 0x0, symName: __ZN6PlayerC1ERKN2sf7Vector2IfEEPNSt3__13mapINS5_12basic_stringIcNS5_11char_traitsIcEENS5_9allocatorIcEEEEPNS0_7TextureENS5_4lessISC_EENSA_INS5_4pairIKSC_SE_EEEEEE, symObjAddr: 0xEF0, symBinAddr: 0x1000178B0, symSize: 0x3C }
  - { offset: 0xA82F3, size: 0x8, addend: 0x0, symName: __ZN6PlayerD2Ev, symObjAddr: 0xF2C, symBinAddr: 0x1000178EC, symSize: 0x6C }
  - { offset: 0xA831F, size: 0x8, addend: 0x0, symName: __ZN10ArrowStackD1Ev, symObjAddr: 0xF98, symBinAddr: 0x100017958, symSize: 0x2C }
  - { offset: 0xA834B, size: 0x8, addend: 0x0, symName: __ZN6PlayerD1Ev, symObjAddr: 0xFC4, symBinAddr: 0x100017984, symSize: 0x2C }
  - { offset: 0xA8377, size: 0x8, addend: 0x0, symName: __ZN6PlayerD0Ev, symObjAddr: 0xFF0, symBinAddr: 0x1000179B0, symSize: 0x30 }
  - { offset: 0xA83A3, size: 0x8, addend: 0x0, symName: __ZN6Player6updateERKf, symObjAddr: 0x1020, symBinAddr: 0x1000179E0, symSize: 0xA98 }
  - { offset: 0xA83E7, size: 0x8, addend: 0x0, symName: __ZN6Player12updateArrowsERKf, symObjAddr: 0x1B08, symBinAddr: 0x1000184C8, symSize: 0x30 }
  - { offset: 0xA841D, size: 0x8, addend: 0x0, symName: __ZN6Player5shootERKfRN2sf7Vector2IfEE, symObjAddr: 0x1B38, symBinAddr: 0x1000184F8, symSize: 0x1E0 }
  - { offset: 0xA8461, size: 0x8, addend: 0x0, symName: __ZN6Player10drawArrowsERN2sf12RenderTargetE, symObjAddr: 0x1D18, symBinAddr: 0x1000186D8, symSize: 0x30 }
  - { offset: 0xA8497, size: 0x8, addend: 0x0, symName: __ZN10ArrowStackD2Ev, symObjAddr: 0x1D48, symBinAddr: 0x100018708, symSize: 0x3C }
  - { offset: 0xA84C3, size: 0x8, addend: 0x0, symName: __ZNSt3__16vectorIN10ArrowStack5ArrowENS_9allocatorIS2_EEED1B8ne180100Ev, symObjAddr: 0x1D84, symBinAddr: 0x100018744, symSize: 0x2C }
  - { offset: 0xA84ED, size: 0x8, addend: 0x0, symName: __ZNSt3__16vectorIN10ArrowStack5ArrowENS_9allocatorIS2_EEED2B8ne180100Ev, symObjAddr: 0x1DB0, symBinAddr: 0x100018770, symSize: 0x44 }
  - { offset: 0xA8517, size: 0x8, addend: 0x0, symName: __ZNSt3__16vectorIN10ArrowStack5ArrowENS_9allocatorIS2_EEE16__destroy_vectorC1B8ne180100ERS5_, symObjAddr: 0x1DF4, symBinAddr: 0x1000187B4, symSize: 0x34 }
  - { offset: 0xA8550, size: 0x8, addend: 0x0, symName: __ZNSt3__16vectorIN10ArrowStack5ArrowENS_9allocatorIS2_EEE16__destroy_vectorclB8ne180100Ev, symObjAddr: 0x1E38, symBinAddr: 0x1000187E8, symSize: 0x88 }
  - { offset: 0xA8576, size: 0x8, addend: 0x0, symName: __ZNSt3__16vectorIN10ArrowStack5ArrowENS_9allocatorIS2_EEE16__destroy_vectorC2B8ne180100ERS5_, symObjAddr: 0x1EC0, symBinAddr: 0x100018870, symSize: 0x20 }
  - { offset: 0xA85AF, size: 0x8, addend: 0x0, symName: __ZNSt3__16vectorIN10ArrowStack5ArrowENS_9allocatorIS2_EEE7__clearB8ne180100Ev, symObjAddr: 0x1EE0, symBinAddr: 0x100018890, symSize: 0x28 }
  - { offset: 0xA85D5, size: 0x8, addend: 0x0, symName: __ZNKSt3__16vectorIN10ArrowStack5ArrowENS_9allocatorIS2_EEE17__annotate_deleteB8ne180100Ev, symObjAddr: 0x1F08, symBinAddr: 0x1000188B8, symSize: 0x10 }
  - { offset: 0xA85FB, size: 0x8, addend: 0x0, symName: __ZNSt3__116allocator_traitsINS_9allocatorIN10ArrowStack5ArrowEEEE10deallocateB8ne180100ERS4_PS3_m, symObjAddr: 0x1F18, symBinAddr: 0x1000188C8, symSize: 0x34 }
  - { offset: 0xA863D, size: 0x8, addend: 0x0, symName: __ZNSt3__16vectorIN10ArrowStack5ArrowENS_9allocatorIS2_EEE7__allocB8ne180100Ev, symObjAddr: 0x1F4C, symBinAddr: 0x1000188FC, symSize: 0x28 }
  - { offset: 0xA8663, size: 0x8, addend: 0x0, symName: __ZNKSt3__16vectorIN10ArrowStack5ArrowENS_9allocatorIS2_EEE8capacityB8ne180100Ev, symObjAddr: 0x1F74, symBinAddr: 0x100018924, symSize: 0x40 }
  - { offset: 0xA8689, size: 0x8, addend: 0x0, symName: __ZNSt3__16vectorIN10ArrowStack5ArrowENS_9allocatorIS2_EEE22__base_destruct_at_endB8ne180100EPS2_, symObjAddr: 0x1FB4, symBinAddr: 0x100018964, symSize: 0x88 }
  - { offset: 0xA86CD, size: 0x8, addend: 0x0, symName: __ZNSt3__116allocator_traitsINS_9allocatorIN10ArrowStack5ArrowEEEE7destroyB8ne180100IS3_vEEvRS4_PT_, symObjAddr: 0x203C, symBinAddr: 0x1000189EC, symSize: 0x2C }
  - { offset: 0xA870A, size: 0x8, addend: 0x0, symName: __ZNSt3__19allocatorIN10ArrowStack5ArrowEE7destroyB8ne180100EPS2_, symObjAddr: 0x207C, symBinAddr: 0x100018A2C, symSize: 0x28 }
  - { offset: 0xA873E, size: 0x8, addend: 0x0, symName: __ZN10ArrowStack5ArrowD1Ev, symObjAddr: 0x20A4, symBinAddr: 0x100018A54, symSize: 0x2C }
  - { offset: 0xA876A, size: 0x8, addend: 0x0, symName: __ZN10ArrowStack5ArrowD2Ev, symObjAddr: 0x20D0, symBinAddr: 0x100018A80, symSize: 0x30 }
  - { offset: 0xA8796, size: 0x8, addend: 0x0, symName: __ZNSt3__19allocatorIN10ArrowStack5ArrowEE10deallocateB8ne180100EPS2_m, symObjAddr: 0x2194, symBinAddr: 0x100018AB0, symSize: 0x44 }
  - { offset: 0xA87D8, size: 0x8, addend: 0x0, symName: __ZNSt3__117__compressed_pairIPN10ArrowStack5ArrowENS_9allocatorIS2_EEE6secondB8ne180100Ev, symObjAddr: 0x22FC, symBinAddr: 0x100018AF4, symSize: 0x24 }
  - { offset: 0xA87FE, size: 0x8, addend: 0x0, symName: __ZNSt3__122__compressed_pair_elemINS_9allocatorIN10ArrowStack5ArrowEEELi1ELb1EE5__getB8ne180100Ev, symObjAddr: 0x2320, symBinAddr: 0x100018B18, symSize: 0x14 }
  - { offset: 0xA8824, size: 0x8, addend: 0x0, symName: __ZNKSt3__16vectorIN10ArrowStack5ArrowENS_9allocatorIS2_EEE9__end_capB8ne180100Ev, symObjAddr: 0x2334, symBinAddr: 0x100018B2C, symSize: 0x28 }
  - { offset: 0xA884A, size: 0x8, addend: 0x0, symName: __ZNKSt3__117__compressed_pairIPN10ArrowStack5ArrowENS_9allocatorIS2_EEE5firstB8ne180100Ev, symObjAddr: 0x235C, symBinAddr: 0x100018B54, symSize: 0x24 }
  - { offset: 0xA8870, size: 0x8, addend: 0x0, symName: __ZNKSt3__122__compressed_pair_elemIPN10ArrowStack5ArrowELi0ELb0EE5__getB8ne180100Ev, symObjAddr: 0x2380, symBinAddr: 0x100018B78, symSize: 0x14 }
  - { offset: 0xA8896, size: 0x8, addend: 0x0, symName: __ZNSt3__112basic_stringIcNS_11char_traitsIcEENS_9allocatorIcEEEC2B8ne180100Ev, symObjAddr: 0x2394, symBinAddr: 0x100018B8C, symSize: 0x48 }
  - { offset: 0xA88CA, size: 0x8, addend: 0x0, symName: __ZNSt3__117__compressed_pairINS_12basic_stringIcNS_11char_traitsIcEENS_9allocatorIcEEE5__repES5_EC1B8ne180100INS_16__value_init_tagENS_18__default_init_tagEEEOT_OT0_, symObjAddr: 0x23DC, symBinAddr: 0x100018BD4, symSize: 0x3C }
  - { offset: 0xA8922, size: 0x8, addend: 0x0, symName: __ZNSt3__117__compressed_pairINS_12basic_stringIcNS_11char_traitsIcEENS_9allocatorIcEEE5__repES5_EC2B8ne180100INS_16__value_init_tagENS_18__default_init_tagEEEOT_OT0_, symObjAddr: 0x242C, symBinAddr: 0x100018C10, symSize: 0x3C }
  - { offset: 0xA897A, size: 0x8, addend: 0x0, symName: __ZNSt3__122__compressed_pair_elemINS_12basic_stringIcNS_11char_traitsIcEENS_9allocatorIcEEE5__repELi0ELb0EEC2B8ne180100ENS_16__value_init_tagE, symObjAddr: 0x2468, symBinAddr: 0x100018C4C, symSize: 0x20 }
  - { offset: 0xA89AF, size: 0x8, addend: 0x0, symName: __ZNSt3__111char_traitsIcE4findB8ne180100EPKcmRS2_, symObjAddr: 0x2B90, symBinAddr: 0x100018E74, symSize: 0x68 }
  - { offset: 0xA89FD, size: 0x8, addend: 0x0, symName: __ZNSt3__16__treeINS_12__value_typeINS_12basic_stringIcNS_11char_traitsIcEENS_9allocatorIcEEEEPN2sf7TextureEEENS_19__map_value_compareIS7_SB_NS_4lessIS7_EELb1EEENS5_ISB_EEE25__emplace_unique_key_argsIS7_JRKNS_21piecewise_construct_tENS_5tupleIJRKS7_EEENSM_IJEEEEEENS_4pairINS_15__tree_iteratorISB_PNS_11__tree_nodeISB_PvEElEEbEERKT_DpOT0_, symObjAddr: 0x2E24, symBinAddr: 0x100018F1C, symSize: 0xF8 }
  - { offset: 0xA8AD6, size: 0x8, addend: 0x0, symName: __ZNSt3__16__treeINS_12__value_typeINS_12basic_stringIcNS_11char_traitsIcEENS_9allocatorIcEEEEPN2sf7TextureEEENS_19__map_value_compareIS7_SB_NS_4lessIS7_EELb1EEENS5_ISB_EEE16__construct_nodeIJRKNS_21piecewise_construct_tENS_5tupleIJRKS7_EEENSM_IJEEEEEENS_10unique_ptrINS_11__tree_nodeISB_PvEENS_22__tree_node_destructorINS5_ISU_EEEEEEDpOT_, symObjAddr: 0x30B8, symBinAddr: 0x100019014, symSize: 0x120 }
  - { offset: 0xA8B6B, size: 0x8, addend: 0x0, symName: __ZNSt3__116allocator_traitsINS_9allocatorINS_11__tree_nodeINS_12__value_typeINS_12basic_stringIcNS_11char_traitsIcEENS1_IcEEEEPN2sf7TextureEEEPvEEEEE9constructB8ne180100INS_4pairIKS8_SB_EEJRKNS_21piecewise_construct_tENS_5tupleIJRSJ_EEENSO_IJEEEEvEEvRSF_PT_DpOT0_, symObjAddr: 0x39D4, symBinAddr: 0x100019134, symSize: 0x44 }
  - { offset: 0xA8BF8, size: 0x8, addend: 0x0, symName: __ZNSt3__19allocatorINS_11__tree_nodeINS_12__value_typeINS_12basic_stringIcNS_11char_traitsIcEENS0_IcEEEEPN2sf7TextureEEEPvEEE9constructB8ne180100INS_4pairIKS7_SA_EEJRKNS_21piecewise_construct_tENS_5tupleIJRSH_EEENSM_IJEEEEEEvPT_DpOT0_, symObjAddr: 0x3D74, symBinAddr: 0x100019178, symSize: 0x44 }
  - { offset: 0xA8C78, size: 0x8, addend: 0x0, symName: __ZNSt3__14pairIKNS_12basic_stringIcNS_11char_traitsIcEENS_9allocatorIcEEEEPN2sf7TextureEEC1B8ne180100IJRS7_EJEEENS_21piecewise_construct_tENS_5tupleIJDpT_EEENSF_IJDpT0_EEE, symObjAddr: 0x3DB8, symBinAddr: 0x1000191BC, symSize: 0x3C }
  - { offset: 0xA8CE2, size: 0x8, addend: 0x0, symName: __ZNSt3__14pairIKNS_12basic_stringIcNS_11char_traitsIcEENS_9allocatorIcEEEEPN2sf7TextureEEC1B8ne180100IJRS7_EJEJLm0EETpTnmJEEENS_21piecewise_construct_tERNS_5tupleIJDpT_EEERNSF_IJDpT0_EEENS_15__tuple_indicesIJXspT1_EEEENSO_IJXspT2_EEEE, symObjAddr: 0x3DF4, symBinAddr: 0x1000191F8, symSize: 0x3C }
  - { offset: 0xA8D75, size: 0x8, addend: 0x0, symName: __ZNSt3__14pairIKNS_12basic_stringIcNS_11char_traitsIcEENS_9allocatorIcEEEEPN2sf7TextureEEC2B8ne180100IJRS7_EJEJLm0EETpTnmJEEENS_21piecewise_construct_tERNS_5tupleIJDpT_EEERNSF_IJDpT0_EEENS_15__tuple_indicesIJXspT1_EEEENSO_IJXspT2_EEEE, symObjAddr: 0x3E30, symBinAddr: 0x100019234, symSize: 0x48 }
  - { offset: 0xA8E08, size: 0x8, addend: 0x0, symName: __ZNSt3__16__treeINS_12__value_typeINS_12basic_stringIcNS_11char_traitsIcEENS_9allocatorIcEEEEP18AnimationComponentEENS_19__map_value_compareIS7_SA_NS_4lessIS7_EELb1EEENS5_ISA_EEE25__emplace_unique_key_argsIS7_JRKNS_21piecewise_construct_tENS_5tupleIJRKS7_EEENSL_IJEEEEEENS_4pairINS_15__tree_iteratorISA_PNS_11__tree_nodeISA_PvEElEEbEERKT_DpOT0_, symObjAddr: 0x4758, symBinAddr: 0x10001927C, symSize: 0xF8 }
  - { offset: 0xA8EE1, size: 0x8, addend: 0x0, symName: __ZNSt3__16__treeINS_12__value_typeINS_12basic_stringIcNS_11char_traitsIcEENS_9allocatorIcEEEEP18AnimationComponentEENS_19__map_value_compareIS7_SA_NS_4lessIS7_EELb1EEENS5_ISA_EEE12__find_equalIS7_EERPNS_16__tree_node_baseIPvEERPNS_15__tree_end_nodeISL_EERKT_, symObjAddr: 0x48A0, symBinAddr: 0x100019374, symSize: 0x16C }
  - { offset: 0xA8F4C, size: 0x8, addend: 0x0, symName: __ZNSt3__16__treeINS_12__value_typeINS_12basic_stringIcNS_11char_traitsIcEENS_9allocatorIcEEEEP18AnimationComponentEENS_19__map_value_compareIS7_SA_NS_4lessIS7_EELb1EEENS5_ISA_EEE16__construct_nodeIJRKNS_21piecewise_construct_tENS_5tupleIJRKS7_EEENSL_IJEEEEEENS_10unique_ptrINS_11__tree_nodeISA_PvEENS_22__tree_node_destructorINS5_IST_EEEEEEDpOT_, symObjAddr: 0x4A0C, symBinAddr: 0x1000194E0, symSize: 0x120 }
  - { offset: 0xA8FD7, size: 0x8, addend: 0x0, symName: __ZNSt3__16__treeINS_12__value_typeINS_12basic_stringIcNS_11char_traitsIcEENS_9allocatorIcEEEEP18AnimationComponentEENS_19__map_value_compareIS7_SA_NS_4lessIS7_EELb1EEENS5_ISA_EEE16__insert_node_atEPNS_15__tree_end_nodeIPNS_16__tree_node_baseIPvEEEERSL_SL_, symObjAddr: 0x4B2C, symBinAddr: 0x100019600, symSize: 0xC4 }
  - { offset: 0xA902C, size: 0x8, addend: 0x0, symName: __ZNKSt3__110unique_ptrINS_11__tree_nodeINS_12__value_typeINS_12basic_stringIcNS_11char_traitsIcEENS_9allocatorIcEEEEP18AnimationComponentEEPvEENS_22__tree_node_destructorINS6_ISD_EEEEE3getB8ne180100Ev, symObjAddr: 0x4BF0, symBinAddr: 0x1000196C4, symSize: 0x28 }
  - { offset: 0xA9052, size: 0x8, addend: 0x0, symName: __ZNSt3__110unique_ptrINS_11__tree_nodeINS_12__value_typeINS_12basic_stringIcNS_11char_traitsIcEENS_9allocatorIcEEEEP18AnimationComponentEEPvEENS_22__tree_node_destructorINS6_ISD_EEEEE7releaseB8ne180100Ev, symObjAddr: 0x4C18, symBinAddr: 0x1000196EC, symSize: 0x44 }
  - { offset: 0xA9087, size: 0x8, addend: 0x0, symName: __ZNSt3__110unique_ptrINS_11__tree_nodeINS_12__value_typeINS_12basic_stringIcNS_11char_traitsIcEENS_9allocatorIcEEEEP18AnimationComponentEEPvEENS_22__tree_node_destructorINS6_ISD_EEEEED1B8ne180100Ev, symObjAddr: 0x4C5C, symBinAddr: 0x100019730, symSize: 0x2C }
  - { offset: 0xA90B1, size: 0x8, addend: 0x0, symName: __ZNSt3__115__tree_iteratorINS_12__value_typeINS_12basic_stringIcNS_11char_traitsIcEENS_9allocatorIcEEEEP18AnimationComponentEEPNS_11__tree_nodeISA_PvEElEC1B8ne180100ESE_, symObjAddr: 0x4C88, symBinAddr: 0x10001975C, symSize: 0x34 }
  - { offset: 0xA90EF, size: 0x8, addend: 0x0, symName: __ZNSt3__14pairINS_15__tree_iteratorINS_12__value_typeINS_12basic_stringIcNS_11char_traitsIcEENS_9allocatorIcEEEEP18AnimationComponentEEPNS_11__tree_nodeISB_PvEElEEbEC1B8ne180100ISG_RbTnNS_9enable_ifIXclsr10_CheckArgsE17__enable_implicitIT_T0_EEEiE4typeELi0EEEOSL_OSM_, symObjAddr: 0x4CBC, symBinAddr: 0x100019790, symSize: 0x3C }
  - { offset: 0xA914D, size: 0x8, addend: 0x0, symName: __ZNKSt3__16__treeINS_12__value_typeINS_12basic_stringIcNS_11char_traitsIcEENS_9allocatorIcEEEEP18AnimationComponentEENS_19__map_value_compareIS7_SA_NS_4lessIS7_EELb1EEENS5_ISA_EEE10__root_ptrB8ne180100Ev, symObjAddr: 0x4D20, symBinAddr: 0x1000197CC, symSize: 0x24 }
  - { offset: 0xA9173, size: 0x8, addend: 0x0, symName: __ZNSt3__16__treeINS_12__value_typeINS_12basic_stringIcNS_11char_traitsIcEENS_9allocatorIcEEEEP18AnimationComponentEENS_19__map_value_compareIS7_SA_NS_4lessIS7_EELb1EEENS5_ISA_EEE10value_compB8ne180100Ev, symObjAddr: 0x4D44, symBinAddr: 0x1000197F0, symSize: 0x28 }
  - { offset: 0xA9199, size: 0x8, addend: 0x0, symName: __ZNKSt3__119__map_value_compareINS_12basic_stringIcNS_11char_traitsIcEENS_9allocatorIcEEEENS_12__value_typeIS6_P18AnimationComponentEENS_4lessIS6_EELb1EEclB8ne180100ERKS6_RKSA_, symObjAddr: 0x4D6C, symBinAddr: 0x100019818, symSize: 0x4C }
  - { offset: 0xA91DD, size: 0x8, addend: 0x0, symName: __ZNKSt3__119__map_value_compareINS_12basic_stringIcNS_11char_traitsIcEENS_9allocatorIcEEEENS_12__value_typeIS6_P18AnimationComponentEENS_4lessIS6_EELb1EEclB8ne180100ERKSA_RKS6_, symObjAddr: 0x4DB8, symBinAddr: 0x100019864, symSize: 0x44 }
  - { offset: 0xA9221, size: 0x8, addend: 0x0, symName: __ZNSt3__117__compressed_pairImNS_19__map_value_compareINS_12basic_stringIcNS_11char_traitsIcEENS_9allocatorIcEEEENS_12__value_typeIS7_P18AnimationComponentEENS_4lessIS7_EELb1EEEE6secondB8ne180100Ev, symObjAddr: 0x4E78, symBinAddr: 0x1000198A8, symSize: 0x24 }
  - { offset: 0xA9247, size: 0x8, addend: 0x0, symName: __ZNSt3__122__compressed_pair_elemINS_19__map_value_compareINS_12basic_stringIcNS_11char_traitsIcEENS_9allocatorIcEEEENS_12__value_typeIS7_P18AnimationComponentEENS_4lessIS7_EELb1EEELi1ELb1EE5__getB8ne180100Ev, symObjAddr: 0x4E9C, symBinAddr: 0x1000198CC, symSize: 0x14 }
  - { offset: 0xA926D, size: 0x8, addend: 0x0, symName: __ZNKSt3__112__value_typeINS_12basic_stringIcNS_11char_traitsIcEENS_9allocatorIcEEEEP18AnimationComponentE11__get_valueB8ne180100Ev, symObjAddr: 0x4EB0, symBinAddr: 0x1000198E0, symSize: 0x24 }
  - { offset: 0xA9293, size: 0x8, addend: 0x0, symName: __ZNSt3__116allocator_traitsINS_9allocatorINS_11__tree_nodeINS_12__value_typeINS_12basic_stringIcNS_11char_traitsIcEENS1_IcEEEEP18AnimationComponentEEPvEEEEE8allocateB8ne180100ERSE_m, symObjAddr: 0x4F58, symBinAddr: 0x10001993C, symSize: 0x2C }
  - { offset: 0xA92C6, size: 0x8, addend: 0x0, symName: __ZNSt3__122__tree_node_destructorINS_9allocatorINS_11__tree_nodeINS_12__value_typeINS_12basic_stringIcNS_11char_traitsIcEENS1_IcEEEEP18AnimationComponentEEPvEEEEEC1B8ne180100ERSE_b, symObjAddr: 0x4F84, symBinAddr: 0x100019968, symSize: 0x40 }
  - { offset: 0xA9313, size: 0x8, addend: 0x0, symName: __ZNSt3__110unique_ptrINS_11__tree_nodeINS_12__value_typeINS_12basic_stringIcNS_11char_traitsIcEENS_9allocatorIcEEEEP18AnimationComponentEEPvEENS_22__tree_node_destructorINS6_ISD_EEEEEC1B8ne180100ILb1EvEEPSD_NS_16__dependent_typeINS_27__unique_ptr_deleter_sfinaeISG_EEXT_EE20__good_rval_ref_typeE, symObjAddr: 0x4FC4, symBinAddr: 0x1000199A8, symSize: 0x3C }
  - { offset: 0xA9364, size: 0x8, addend: 0x0, symName: __ZNSt3__116allocator_traitsINS_9allocatorINS_11__tree_nodeINS_12__value_typeINS_12basic_stringIcNS_11char_traitsIcEENS1_IcEEEEP18AnimationComponentEEPvEEEEE9constructB8ne180100INS_4pairIKS8_SA_EEJRKNS_21piecewise_construct_tENS_5tupleIJRSI_EEENSN_IJEEEEvEEvRSE_PT_DpOT0_, symObjAddr: 0x5000, symBinAddr: 0x1000199E4, symSize: 0x44 }
  - { offset: 0xA93E7, size: 0x8, addend: 0x0, symName: __ZNKSt3__110unique_ptrINS_11__tree_nodeINS_12__value_typeINS_12basic_stringIcNS_11char_traitsIcEENS_9allocatorIcEEEEP18AnimationComponentEEPvEENS_22__tree_node_destructorINS6_ISD_EEEEEptB8ne180100Ev, symObjAddr: 0x5068, symBinAddr: 0x100019A28, symSize: 0x28 }
  - { offset: 0xA940D, size: 0x8, addend: 0x0, symName: __ZNSt3__110unique_ptrINS_11__tree_nodeINS_12__value_typeINS_12basic_stringIcNS_11char_traitsIcEENS_9allocatorIcEEEEP18AnimationComponentEEPvEENS_22__tree_node_destructorINS6_ISD_EEEEE11get_deleterB8ne180100Ev, symObjAddr: 0x5090, symBinAddr: 0x100019A50, symSize: 0x24 }
  - { offset: 0xA9433, size: 0x8, addend: 0x0, symName: __ZNSt3__19allocatorINS_11__tree_nodeINS_12__value_typeINS_12basic_stringIcNS_11char_traitsIcEENS0_IcEEEEP18AnimationComponentEEPvEEE8allocateB8ne180100Em, symObjAddr: 0x50EC, symBinAddr: 0x100019A74, symSize: 0x54 }
  - { offset: 0xA9471, size: 0x8, addend: 0x0, symName: __ZNSt3__116allocator_traitsINS_9allocatorINS_11__tree_nodeINS_12__value_typeINS_12basic_stringIcNS_11char_traitsIcEENS1_IcEEEEP18AnimationComponentEEPvEEEEE8max_sizeB8ne180100ISE_vEEmRKSE_, symObjAddr: 0x5140, symBinAddr: 0x100019AC8, symSize: 0x24 }
  - { offset: 0xA949F, size: 0x8, addend: 0x0, symName: __ZNKSt3__19allocatorINS_11__tree_nodeINS_12__value_typeINS_12basic_stringIcNS_11char_traitsIcEENS0_IcEEEEP18AnimationComponentEEPvEEE8max_sizeB8ne180100Ev, symObjAddr: 0x5164, symBinAddr: 0x100019AEC, symSize: 0x14 }
  - { offset: 0xA94C5, size: 0x8, addend: 0x0, symName: __ZNSt3__122__tree_node_destructorINS_9allocatorINS_11__tree_nodeINS_12__value_typeINS_12basic_stringIcNS_11char_traitsIcEENS1_IcEEEEP18AnimationComponentEEPvEEEEEC2B8ne180100ERSE_b, symObjAddr: 0x5178, symBinAddr: 0x100019B00, symSize: 0x30 }
  - { offset: 0xA950D, size: 0x8, addend: 0x0, symName: __ZNSt3__110unique_ptrINS_11__tree_nodeINS_12__value_typeINS_12basic_stringIcNS_11char_traitsIcEENS_9allocatorIcEEEEP18AnimationComponentEEPvEENS_22__tree_node_destructorINS6_ISD_EEEEEC2B8ne180100ILb1EvEEPSD_NS_16__dependent_typeINS_27__unique_ptr_deleter_sfinaeISG_EEXT_EE20__good_rval_ref_typeE, symObjAddr: 0x51A8, symBinAddr: 0x100019B30, symSize: 0x48 }
  - { offset: 0xA955E, size: 0x8, addend: 0x0, symName: __ZNSt3__117__compressed_pairIPNS_11__tree_nodeINS_12__value_typeINS_12basic_stringIcNS_11char_traitsIcEENS_9allocatorIcEEEEP18AnimationComponentEEPvEENS_22__tree_node_destructorINS6_ISD_EEEEEC1B8ne180100IRSE_SH_EEOT_OT0_, symObjAddr: 0x51F0, symBinAddr: 0x100019B78, symSize: 0x3C }
  - { offset: 0xA95B6, size: 0x8, addend: 0x0, symName: __ZNSt3__117__compressed_pairIPNS_11__tree_nodeINS_12__value_typeINS_12basic_stringIcNS_11char_traitsIcEENS_9allocatorIcEEEEP18AnimationComponentEEPvEENS_22__tree_node_destructorINS6_ISD_EEEEEC2B8ne180100IRSE_SH_EEOT_OT0_, symObjAddr: 0x522C, symBinAddr: 0x100019BB4, symSize: 0x48 }
  - { offset: 0xA960E, size: 0x8, addend: 0x0, symName: __ZNSt3__122__compressed_pair_elemIPNS_11__tree_nodeINS_12__value_typeINS_12basic_stringIcNS_11char_traitsIcEENS_9allocatorIcEEEEP18AnimationComponentEEPvEELi0ELb0EEC2B8ne180100IRSE_vEEOT_, symObjAddr: 0x5274, symBinAddr: 0x100019BFC, symSize: 0x24 }
  - { offset: 0xA9650, size: 0x8, addend: 0x0, symName: __ZNSt3__122__compressed_pair_elemINS_22__tree_node_destructorINS_9allocatorINS_11__tree_nodeINS_12__value_typeINS_12basic_stringIcNS_11char_traitsIcEENS2_IcEEEEP18AnimationComponentEEPvEEEEEELi1ELb0EEC2B8ne180100ISG_vEEOT_, symObjAddr: 0x5298, symBinAddr: 0x100019C20, symSize: 0x24 }
  - { offset: 0xA9692, size: 0x8, addend: 0x0, symName: __ZNSt3__19allocatorINS_11__tree_nodeINS_12__value_typeINS_12basic_stringIcNS_11char_traitsIcEENS0_IcEEEEP18AnimationComponentEEPvEEE9constructB8ne180100INS_4pairIKS7_S9_EEJRKNS_21piecewise_construct_tENS_5tupleIJRSG_EEENSL_IJEEEEEEvPT_DpOT0_, symObjAddr: 0x52BC, symBinAddr: 0x100019C44, symSize: 0x44 }
  - { offset: 0xA9712, size: 0x8, addend: 0x0, symName: __ZNSt3__14pairIKNS_12basic_stringIcNS_11char_traitsIcEENS_9allocatorIcEEEEP18AnimationComponentEC1B8ne180100IJRS7_EJEEENS_21piecewise_construct_tENS_5tupleIJDpT_EEENSE_IJDpT0_EEE, symObjAddr: 0x5300, symBinAddr: 0x100019C88, symSize: 0x3C }
  - { offset: 0xA977C, size: 0x8, addend: 0x0, symName: __ZNSt3__14pairIKNS_12basic_stringIcNS_11char_traitsIcEENS_9allocatorIcEEEEP18AnimationComponentEC1B8ne180100IJRS7_EJEJLm0EETpTnmJEEENS_21piecewise_construct_tERNS_5tupleIJDpT_EEERNSE_IJDpT0_EEENS_15__tuple_indicesIJXspT1_EEEENSN_IJXspT2_EEEE, symObjAddr: 0x533C, symBinAddr: 0x100019CC4, symSize: 0x3C }
  - { offset: 0xA980F, size: 0x8, addend: 0x0, symName: __ZNSt3__14pairIKNS_12basic_stringIcNS_11char_traitsIcEENS_9allocatorIcEEEEP18AnimationComponentEC2B8ne180100IJRS7_EJEJLm0EETpTnmJEEENS_21piecewise_construct_tERNS_5tupleIJDpT_EEERNSE_IJDpT0_EEENS_15__tuple_indicesIJXspT1_EEEENSN_IJXspT2_EEEE, symObjAddr: 0x5378, symBinAddr: 0x100019D00, symSize: 0x48 }
  - { offset: 0xA98A2, size: 0x8, addend: 0x0, symName: __ZNKSt3__117__compressed_pairIPNS_11__tree_nodeINS_12__value_typeINS_12basic_stringIcNS_11char_traitsIcEENS_9allocatorIcEEEEP18AnimationComponentEEPvEENS_22__tree_node_destructorINS6_ISD_EEEEE5firstB8ne180100Ev, symObjAddr: 0x53C0, symBinAddr: 0x100019D48, symSize: 0x24 }
  - { offset: 0xA98C8, size: 0x8, addend: 0x0, symName: __ZNKSt3__122__compressed_pair_elemIPNS_11__tree_nodeINS_12__value_typeINS_12basic_stringIcNS_11char_traitsIcEENS_9allocatorIcEEEEP18AnimationComponentEEPvEELi0ELb0EE5__getB8ne180100Ev, symObjAddr: 0x53E4, symBinAddr: 0x100019D6C, symSize: 0x14 }
  - { offset: 0xA98EE, size: 0x8, addend: 0x0, symName: __ZNSt3__117__compressed_pairIPNS_11__tree_nodeINS_12__value_typeINS_12basic_stringIcNS_11char_traitsIcEENS_9allocatorIcEEEEP18AnimationComponentEEPvEENS_22__tree_node_destructorINS6_ISD_EEEEE6secondB8ne180100Ev, symObjAddr: 0x53F8, symBinAddr: 0x100019D80, symSize: 0x28 }
  - { offset: 0xA9914, size: 0x8, addend: 0x0, symName: __ZNSt3__122__compressed_pair_elemINS_22__tree_node_destructorINS_9allocatorINS_11__tree_nodeINS_12__value_typeINS_12basic_stringIcNS_11char_traitsIcEENS2_IcEEEEP18AnimationComponentEEPvEEEEEELi1ELb0EE5__getB8ne180100Ev, symObjAddr: 0x5420, symBinAddr: 0x100019DA8, symSize: 0x14 }
  - { offset: 0xA993A, size: 0x8, addend: 0x0, symName: __ZNSt3__16__treeINS_12__value_typeINS_12basic_stringIcNS_11char_traitsIcEENS_9allocatorIcEEEEP18AnimationComponentEENS_19__map_value_compareIS7_SA_NS_4lessIS7_EELb1EEENS5_ISA_EEE4sizeB8ne180100Ev, symObjAddr: 0x5448, symBinAddr: 0x100019DBC, symSize: 0x28 }
  - { offset: 0xA9960, size: 0x8, addend: 0x0, symName: __ZNSt3__117__compressed_pairImNS_19__map_value_compareINS_12basic_stringIcNS_11char_traitsIcEENS_9allocatorIcEEEENS_12__value_typeIS7_P18AnimationComponentEENS_4lessIS7_EELb1EEEE5firstB8ne180100Ev, symObjAddr: 0x5470, symBinAddr: 0x100019DE4, symSize: 0x24 }
  - { offset: 0xA9986, size: 0x8, addend: 0x0, symName: __ZNSt3__117__compressed_pairIPNS_11__tree_nodeINS_12__value_typeINS_12basic_stringIcNS_11char_traitsIcEENS_9allocatorIcEEEEP18AnimationComponentEEPvEENS_22__tree_node_destructorINS6_ISD_EEEEE5firstB8ne180100Ev, symObjAddr: 0x5494, symBinAddr: 0x100019E08, symSize: 0x24 }
  - { offset: 0xA99AC, size: 0x8, addend: 0x0, symName: __ZNSt3__122__compressed_pair_elemIPNS_11__tree_nodeINS_12__value_typeINS_12basic_stringIcNS_11char_traitsIcEENS_9allocatorIcEEEEP18AnimationComponentEEPvEELi0ELb0EE5__getB8ne180100Ev, symObjAddr: 0x54B8, symBinAddr: 0x100019E2C, symSize: 0x14 }
  - { offset: 0xA99D2, size: 0x8, addend: 0x0, symName: __ZNSt3__110unique_ptrINS_11__tree_nodeINS_12__value_typeINS_12basic_stringIcNS_11char_traitsIcEENS_9allocatorIcEEEEP18AnimationComponentEEPvEENS_22__tree_node_destructorINS6_ISD_EEEEED2B8ne180100Ev, symObjAddr: 0x54CC, symBinAddr: 0x100019E40, symSize: 0x30 }
  - { offset: 0xA99FC, size: 0x8, addend: 0x0, symName: __ZNSt3__110unique_ptrINS_11__tree_nodeINS_12__value_typeINS_12basic_stringIcNS_11char_traitsIcEENS_9allocatorIcEEEEP18AnimationComponentEEPvEENS_22__tree_node_destructorINS6_ISD_EEEEE5resetB8ne180100EPSD_, symObjAddr: 0x54FC, symBinAddr: 0x100019E70, symSize: 0x70 }
  - { offset: 0xA9A40, size: 0x8, addend: 0x0, symName: __ZNSt3__122__tree_node_destructorINS_9allocatorINS_11__tree_nodeINS_12__value_typeINS_12basic_stringIcNS_11char_traitsIcEENS1_IcEEEEP18AnimationComponentEEPvEEEEEclB8ne180100EPSD_, symObjAddr: 0x556C, symBinAddr: 0x100019EE0, symSize: 0x90 }
  - { offset: 0xA9A75, size: 0x8, addend: 0x0, symName: __ZNSt3__115__tree_iteratorINS_12__value_typeINS_12basic_stringIcNS_11char_traitsIcEENS_9allocatorIcEEEEP18AnimationComponentEEPNS_11__tree_nodeISA_PvEElEC2B8ne180100ESE_, symObjAddr: 0x5714, symBinAddr: 0x100019F70, symSize: 0x20 }
  - { offset: 0xA9AAE, size: 0x8, addend: 0x0, symName: __ZNSt3__14pairINS_15__tree_iteratorINS_12__value_typeINS_12basic_stringIcNS_11char_traitsIcEENS_9allocatorIcEEEEP18AnimationComponentEEPNS_11__tree_nodeISB_PvEElEEbEC2B8ne180100ISG_RbTnNS_9enable_ifIXclsr10_CheckArgsE17__enable_implicitIT_T0_EEEiE4typeELi0EEEOSL_OSM_, symObjAddr: 0x5734, symBinAddr: 0x100019F90, symSize: 0x38 }
  - { offset: 0xA9B0C, size: 0x8, addend: 0x0, symName: __ZNSt3__16__treeINS_12__value_typeINS_12basic_stringIcNS_11char_traitsIcEENS_9allocatorIcEEEEP18AnimationComponentEENS_19__map_value_compareIS7_SA_NS_4lessIS7_EELb1EEENS5_ISA_EEE25__emplace_unique_key_argsIS7_JRKNS_21piecewise_construct_tENS_5tupleIJOS7_EEENSL_IJEEEEEENS_4pairINS_15__tree_iteratorISA_PNS_11__tree_nodeISA_PvEElEEbEERKT_DpOT0_, symObjAddr: 0x5EE0, symBinAddr: 0x100019FC8, symSize: 0xF8 }
  - { offset: 0xA9BE5, size: 0x8, addend: 0x0, symName: __ZNSt3__16__treeINS_12__value_typeINS_12basic_stringIcNS_11char_traitsIcEENS_9allocatorIcEEEEP18AnimationComponentEENS_19__map_value_compareIS7_SA_NS_4lessIS7_EELb1EEENS5_ISA_EEE16__construct_nodeIJRKNS_21piecewise_construct_tENS_5tupleIJOS7_EEENSL_IJEEEEEENS_10unique_ptrINS_11__tree_nodeISA_PvEENS_22__tree_node_destructorINS5_ISS_EEEEEEDpOT_, symObjAddr: 0x5FD8, symBinAddr: 0x10001A0C0, symSize: 0x120 }
  - { offset: 0xA9C70, size: 0x8, addend: 0x0, symName: __ZNSt3__116allocator_traitsINS_9allocatorINS_11__tree_nodeINS_12__value_typeINS_12basic_stringIcNS_11char_traitsIcEENS1_IcEEEEP18AnimationComponentEEPvEEEEE9constructB8ne180100INS_4pairIKS8_SA_EEJRKNS_21piecewise_construct_tENS_5tupleIJOS8_EEENSN_IJEEEEvEEvRSE_PT_DpOT0_, symObjAddr: 0x60F8, symBinAddr: 0x10001A1E0, symSize: 0x44 }
  - { offset: 0xA9CF3, size: 0x8, addend: 0x0, symName: __ZNSt3__19allocatorINS_11__tree_nodeINS_12__value_typeINS_12basic_stringIcNS_11char_traitsIcEENS0_IcEEEEP18AnimationComponentEEPvEEE9constructB8ne180100INS_4pairIKS7_S9_EEJRKNS_21piecewise_construct_tENS_5tupleIJOS7_EEENSL_IJEEEEEEvPT_DpOT0_, symObjAddr: 0x613C, symBinAddr: 0x10001A224, symSize: 0x44 }
  - { offset: 0xA9D73, size: 0x8, addend: 0x0, symName: __ZNSt3__14pairIKNS_12basic_stringIcNS_11char_traitsIcEENS_9allocatorIcEEEEP18AnimationComponentEC1B8ne180100IJOS6_EJEEENS_21piecewise_construct_tENS_5tupleIJDpT_EEENSE_IJDpT0_EEE, symObjAddr: 0x6180, symBinAddr: 0x10001A268, symSize: 0x44 }
  - { offset: 0xA9DDD, size: 0x8, addend: 0x0, symName: __ZNSt3__14pairIKNS_12basic_stringIcNS_11char_traitsIcEENS_9allocatorIcEEEEP18AnimationComponentEC1B8ne180100IJOS6_EJEJLm0EETpTnmJEEENS_21piecewise_construct_tERNS_5tupleIJDpT_EEERNSE_IJDpT0_EEENS_15__tuple_indicesIJXspT1_EEEENSN_IJXspT2_EEEE, symObjAddr: 0x61C4, symBinAddr: 0x10001A2AC, symSize: 0x3C }
  - { offset: 0xA9E70, size: 0x8, addend: 0x0, symName: __ZNSt3__14pairIKNS_12basic_stringIcNS_11char_traitsIcEENS_9allocatorIcEEEEP18AnimationComponentEC2B8ne180100IJOS6_EJEJLm0EETpTnmJEEENS_21piecewise_construct_tERNS_5tupleIJDpT_EEERNSE_IJDpT0_EEENS_15__tuple_indicesIJXspT1_EEEENSN_IJXspT2_EEEE, symObjAddr: 0x6200, symBinAddr: 0x10001A2E8, symSize: 0x48 }
  - { offset: 0xB75A3, size: 0x8, addend: 0x0, symName: __ZN5Enemy4drawERN2sf12RenderWindowEf, symObjAddr: 0x458, symBinAddr: 0x10001A67C, symSize: 0x168 }
  - { offset: 0xB75C9, size: 0x8, addend: 0x0, symName: __ZZN5Enemy4drawERN2sf12RenderWindowEfE11elapsedTime, symObjAddr: 0x5AE44, symBinAddr: 0x100024004, symSize: 0x0 }
  - { offset: 0xB75DF, size: 0x8, addend: 0x0, symName: __ZZN5Enemy4drawERN2sf12RenderWindowEfE10frameIndex, symObjAddr: 0x5AE48, symBinAddr: 0x100024008, symSize: 0x0 }
  - { offset: 0xB7618, size: 0x8, addend: 0x0, symName: __ZN5EnemyC2Ev, symObjAddr: 0x0, symBinAddr: 0x10001A330, symSize: 0x254 }
  - { offset: 0xB7644, size: 0x8, addend: 0x0, symName: __ZN2sf7Vector2IiEC1Eii, symObjAddr: 0x254, symBinAddr: 0x10001A584, symSize: 0x3C }
  - { offset: 0xB768C, size: 0x8, addend: 0x0, symName: __ZN5EnemyC1Ev, symObjAddr: 0x39C, symBinAddr: 0x10001A5C0, symSize: 0x2C }
  - { offset: 0xB76B8, size: 0x8, addend: 0x0, symName: __ZN5Enemy6updateERN2sf12RenderWindowE, symObjAddr: 0x3C8, symBinAddr: 0x10001A5EC, symSize: 0x90 }
  - { offset: 0xB76EE, size: 0x8, addend: 0x0, symName: __ZN5Enemy8ChangeHPEi, symObjAddr: 0x5C0, symBinAddr: 0x10001A7E4, symSize: 0xF8 }
  - { offset: 0xB7724, size: 0x8, addend: 0x0, symName: __ZN2sf7Vector2IiEC2Eii, symObjAddr: 0x1024, symBinAddr: 0x10001A8DC, symSize: 0x2C }
  - { offset: 0xB995F, size: 0x8, addend: 0x0, symName: __ZN2sfmlIfEENS_7Vector2IT_EERKS3_S2_, symObjAddr: 0x1C4, symBinAddr: 0x10001AA74, symSize: 0x50 }
  - { offset: 0xB99A3, size: 0x8, addend: 0x0, symName: __ZN2sfmlIfEENS_7Vector2IT_EES2_RKS3_, symObjAddr: 0x214, symBinAddr: 0x10001AAC4, symSize: 0x50 }
  - { offset: 0xBD3E7, size: 0x8, addend: 0x0, symName: __ZNSt3__13minB8ne180100IiEERKT_S3_S3_, symObjAddr: 0xA04, symBinAddr: 0x10001B0A8, symSize: 0x2C }
  - { offset: 0xBD42B, size: 0x8, addend: 0x0, symName: __ZNSt3__1neB8ne180100IPN10ArrowStack5ArrowEEEbRKNS_11__wrap_iterIT_EES8_, symObjAddr: 0xB74, symBinAddr: 0x10001B218, symSize: 0x30 }
  - { offset: 0xBD46F, size: 0x8, addend: 0x0, symName: __ZNSt3__13minB8ne180100IiNS_6__lessIvvEEEERKT_S5_S5_T0_, symObjAddr: 0xDC4, symBinAddr: 0x10001B3D0, symSize: 0x54 }
  - { offset: 0xBD542, size: 0x8, addend: 0x0, symName: __ZNSt3__1eqB8ne180100IPN10ArrowStack5ArrowEEEbRKNS_11__wrap_iterIT_EES8_, symObjAddr: 0xE48, symBinAddr: 0x10001B454, symSize: 0x44 }
  - { offset: 0xBD586, size: 0x8, addend: 0x0, symName: __ZNSt3__120__throw_length_errorB8ne180100EPKc, symObjAddr: 0x2A14, symBinAddr: 0x10001BE4C, symSize: 0x64 }
  - { offset: 0xBD5AF, size: 0x8, addend: 0x0, symName: __ZNSt3__119__allocate_at_leastB8ne180100INS_9allocatorIN10ArrowStack5ArrowEEEEENS_19__allocation_resultINS_16allocator_traitsIT_E7pointerEEERS7_m, symObjAddr: 0x2C58, symBinAddr: 0x10001C03C, symSize: 0x40 }
  - { offset: 0xBD5F2, size: 0x8, addend: 0x0, symName: __ZNSt3__142__uninitialized_allocator_move_if_noexceptB8ne180100INS_9allocatorIN10ArrowStack5ArrowEEENS_16reverse_iteratorIPS3_EES7_S7_EET2_RT_T0_T1_S8_, symObjAddr: 0x2EF0, symBinAddr: 0x10001C1F0, symSize: 0x12C }
  - { offset: 0xBD693, size: 0x8, addend: 0x0, symName: __ZNSt3__14swapB8ne180100IPN10ArrowStack5ArrowEEENS_9enable_ifIXaasr21is_move_constructibleIT_EE5valuesr18is_move_assignableIS5_EE5valueEvE4typeERS5_S8_, symObjAddr: 0x3068, symBinAddr: 0x10001C368, symSize: 0x3C }
  - { offset: 0xBD6E5, size: 0x8, addend: 0x0, symName: __ZNSt3__122__make_exception_guardB8ne180100INS_29_AllocatorDestroyRangeReverseINS_9allocatorIN10ArrowStack5ArrowEEENS_16reverse_iteratorIPS4_EEEEEENS_28__exception_guard_exceptionsIT_EESB_, symObjAddr: 0x30B8, symBinAddr: 0x10001C3B8, symSize: 0x4C }
  - { offset: 0xBD71C, size: 0x8, addend: 0x0, symName: __ZNSt3__1neB8ne180100IPN10ArrowStack5ArrowES3_EEbRKNS_16reverse_iteratorIT_EERKNS4_IT0_EE, symObjAddr: 0x3148, symBinAddr: 0x10001C448, symSize: 0x44 }
  - { offset: 0xBD769, size: 0x8, addend: 0x0, symName: __ZNSt3__112__to_addressB8ne180100INS_16reverse_iteratorIPN10ArrowStack5ArrowEEEvEEu7__decayIDTclsr19__to_address_helperIT_EE6__callclsr3stdE7declvalIRKS6_EEEEES8_, symObjAddr: 0x318C, symBinAddr: 0x10001C48C, symSize: 0x24 }
  - { offset: 0xBD7C9, size: 0x8, addend: 0x0, symName: __ZNSt3__119__allocator_destroyB8ne180100INS_9allocatorIN10ArrowStack5ArrowEEENS_16reverse_iteratorINS5_IPS3_EEEES8_EEvRT_T0_T1_, symObjAddr: 0x3438, symBinAddr: 0x10001C738, symSize: 0x70 }
  - { offset: 0xBD82F, size: 0x8, addend: 0x0, symName: __ZNSt3__1neB8ne180100INS_16reverse_iteratorIPN10ArrowStack5ArrowEEES5_EEbRKNS1_IT_EERKNS1_IT0_EE, symObjAddr: 0x34E4, symBinAddr: 0x10001C7E4, symSize: 0x5C }
  - { offset: 0xBD87C, size: 0x8, addend: 0x0, symName: __ZNSt3__112__to_addressB8ne180100INS_16reverse_iteratorINS1_IPN10ArrowStack5ArrowEEEEEvEEu7__decayIDTclsr19__to_address_helperIT_EE6__callclsr3stdE7declvalIRKS7_EEEEES9_, symObjAddr: 0x3540, symBinAddr: 0x10001C840, symSize: 0x24 }
  - { offset: 0xBEA56, size: 0x8, addend: 0x0, symName: __ZNSt3__16vectorIN10ArrowStack5ArrowENS_9allocatorIS2_EEE26__swap_out_circular_bufferERNS_14__split_bufferIS2_RS4_EE, symObjAddr: 0x26C0, symBinAddr: 0x10001BBF0, symSize: 0x110 }
  - { offset: 0xBEAE9, size: 0x8, addend: 0x0, symName: __ZN10ArrowStack5ArrowC2ERN2sf7TextureE, symObjAddr: 0x0, symBinAddr: 0x10001A908, symSize: 0x98 }
  - { offset: 0xBEB23, size: 0x8, addend: 0x0, symName: __ZN10ArrowStack5ArrowC1ERN2sf7TextureE, symObjAddr: 0xF0, symBinAddr: 0x10001A9A0, symSize: 0x34 }
  - { offset: 0xBEB5D, size: 0x8, addend: 0x0, symName: __ZN10ArrowStack5Arrow4drawERN2sf12RenderTargetE, symObjAddr: 0x124, symBinAddr: 0x10001A9D4, symSize: 0x38 }
  - { offset: 0xBEB93, size: 0x8, addend: 0x0, symName: __ZN10ArrowStack5Arrow6updateERKf, symObjAddr: 0x15C, symBinAddr: 0x10001AA0C, symSize: 0x68 }
  - { offset: 0xBEBC9, size: 0x8, addend: 0x0, symName: __ZN10ArrowStack5Arrow11isAvailableEv, symObjAddr: 0x264, symBinAddr: 0x10001AB14, symSize: 0x18 }
  - { offset: 0xBEBF1, size: 0x8, addend: 0x0, symName: __ZN10ArrowStack5Arrow5shootERKN2sf7Vector2IfEES5_, symObjAddr: 0x27C, symBinAddr: 0x10001AB2C, symSize: 0x64 }
  - { offset: 0xBEC35, size: 0x8, addend: 0x0, symName: __ZN10ArrowStack5Arrow12setRectangleEv, symObjAddr: 0x2E0, symBinAddr: 0x10001AB90, symSize: 0x1E4 }
  - { offset: 0xBEC87, size: 0x8, addend: 0x0, symName: __Z3absB8ne180100f, symObjAddr: 0x54C, symBinAddr: 0x10001AD74, symSize: 0x18 }
  - { offset: 0xBECB4, size: 0x8, addend: 0x0, symName: __ZN10ArrowStackC2ERN2sf6SpriteEi, symObjAddr: 0x564, symBinAddr: 0x10001AD8C, symSize: 0x1BC }
  - { offset: 0xBED19, size: 0x8, addend: 0x0, symName: __ZNSt3__16vectorIN10ArrowStack5ArrowENS_9allocatorIS2_EEEC1B8ne180100Ev, symObjAddr: 0x720, symBinAddr: 0x10001AF48, symSize: 0x2C }
  - { offset: 0xBED48, size: 0x8, addend: 0x0, symName: __ZNSt3__16vectorIN10ArrowStack5ArrowENS_9allocatorIS2_EEE9push_backB8ne180100EOS2_, symObjAddr: 0x878, symBinAddr: 0x10001AF74, symSize: 0x8C }
  - { offset: 0xBED8E, size: 0x8, addend: 0x0, symName: __ZN10ArrowStackC1ERN2sf6SpriteEi, symObjAddr: 0x95C, symBinAddr: 0x10001B000, symSize: 0x3C }
  - { offset: 0xBEDD6, size: 0x8, addend: 0x0, symName: __ZN10ArrowStack8canShootEv, symObjAddr: 0x998, symBinAddr: 0x10001B03C, symSize: 0x20 }
  - { offset: 0xBEDFE, size: 0x8, addend: 0x0, symName: __ZN10ArrowStack6reloadEi, symObjAddr: 0x9B8, symBinAddr: 0x10001B05C, symSize: 0x4C }
  - { offset: 0xBEE34, size: 0x8, addend: 0x0, symName: __ZN10ArrowStack10shootArrowERKN2sf7Vector2IfEE, symObjAddr: 0xA30, symBinAddr: 0x10001B0D4, symSize: 0xE4 }
  - { offset: 0xBEEBB, size: 0x8, addend: 0x0, symName: __ZNSt3__16vectorIN10ArrowStack5ArrowENS_9allocatorIS2_EEE5beginB8ne180100Ev, symObjAddr: 0xB14, symBinAddr: 0x10001B1B8, symSize: 0x30 }
  - { offset: 0xBEEE3, size: 0x8, addend: 0x0, symName: __ZNSt3__16vectorIN10ArrowStack5ArrowENS_9allocatorIS2_EEE3endB8ne180100Ev, symObjAddr: 0xB44, symBinAddr: 0x10001B1E8, symSize: 0x30 }
  - { offset: 0xBEF0B, size: 0x8, addend: 0x0, symName: __ZNKSt3__111__wrap_iterIPN10ArrowStack5ArrowEEdeB8ne180100Ev, symObjAddr: 0xBA4, symBinAddr: 0x10001B248, symSize: 0x18 }
  - { offset: 0xBEF31, size: 0x8, addend: 0x0, symName: __ZNSt3__111__wrap_iterIPN10ArrowStack5ArrowEEppB8ne180100Ev, symObjAddr: 0xBBC, symBinAddr: 0x10001B260, symSize: 0x20 }
  - { offset: 0xBEF57, size: 0x8, addend: 0x0, symName: __ZN10ArrowStack16getCurrentArrowsEv, symObjAddr: 0xBDC, symBinAddr: 0x10001B280, symSize: 0x18 }
  - { offset: 0xBEF7F, size: 0x8, addend: 0x0, symName: __ZN10ArrowStack6updateERKf, symObjAddr: 0xBF4, symBinAddr: 0x10001B298, symSize: 0x9C }
  - { offset: 0xBF006, size: 0x8, addend: 0x0, symName: __ZN10ArrowStack4drawERN2sf12RenderTargetE, symObjAddr: 0xC90, symBinAddr: 0x10001B334, symSize: 0x9C }
  - { offset: 0xBF097, size: 0x8, addend: 0x0, symName: __ZNKSt3__16__lessIvvEclB8ne180100IiiEEbRKT_RKT0_, symObjAddr: 0xE18, symBinAddr: 0x10001B424, symSize: 0x30 }
  - { offset: 0xBF0EB, size: 0x8, addend: 0x0, symName: __ZNKSt3__111__wrap_iterIPN10ArrowStack5ArrowEE4baseB8ne180100Ev, symObjAddr: 0xE8C, symBinAddr: 0x10001B498, symSize: 0x18 }
  - { offset: 0xBF111, size: 0x8, addend: 0x0, symName: __ZNSt3__16vectorIN10ArrowStack5ArrowENS_9allocatorIS2_EEEC2B8ne180100Ev, symObjAddr: 0xF58, symBinAddr: 0x10001B4B0, symSize: 0x4C }
  - { offset: 0xBF145, size: 0x8, addend: 0x0, symName: __ZNSt3__117__compressed_pairIPN10ArrowStack5ArrowENS_9allocatorIS2_EEEC1B8ne180100IDnNS_18__default_init_tagEEEOT_OT0_, symObjAddr: 0xFA4, symBinAddr: 0x10001B4FC, symSize: 0x3C }
  - { offset: 0xBF19D, size: 0x8, addend: 0x0, symName: __ZNSt3__117__compressed_pairIPN10ArrowStack5ArrowENS_9allocatorIS2_EEEC2B8ne180100IDnNS_18__default_init_tagEEEOT_OT0_, symObjAddr: 0xFF0, symBinAddr: 0x10001B538, symSize: 0x40 }
  - { offset: 0xBF1F5, size: 0x8, addend: 0x0, symName: __ZNSt3__122__compressed_pair_elemIPN10ArrowStack5ArrowELi0ELb0EEC2B8ne180100IDnvEEOT_, symObjAddr: 0x1030, symBinAddr: 0x10001B578, symSize: 0x1C }
  - { offset: 0xBF237, size: 0x8, addend: 0x0, symName: __ZNSt3__122__compressed_pair_elemINS_9allocatorIN10ArrowStack5ArrowEEELi1ELb1EEC2B8ne180100ENS_18__default_init_tagE, symObjAddr: 0x104C, symBinAddr: 0x10001B594, symSize: 0x2C }
  - { offset: 0xBF26C, size: 0x8, addend: 0x0, symName: __ZNSt3__19allocatorIN10ArrowStack5ArrowEEC2B8ne180100Ev, symObjAddr: 0x1078, symBinAddr: 0x10001B5C0, symSize: 0x2C }
  - { offset: 0xBF296, size: 0x8, addend: 0x0, symName: __ZNSt3__116__non_trivial_ifILb1ENS_9allocatorIN10ArrowStack5ArrowEEEEC2B8ne180100Ev, symObjAddr: 0x10A4, symBinAddr: 0x10001B5EC, symSize: 0x14 }
  - { offset: 0xBF2C0, size: 0x8, addend: 0x0, symName: __ZNSt3__16vectorIN10ArrowStack5ArrowENS_9allocatorIS2_EEE9__end_capB8ne180100Ev, symObjAddr: 0x20D0, symBinAddr: 0x10001B600, symSize: 0x28 }
  - { offset: 0xBF2EB, size: 0x8, addend: 0x0, symName: __ZNSt3__16vectorIN10ArrowStack5ArrowENS_9allocatorIS2_EEE22__construct_one_at_endB8ne180100IJS2_EEEvDpOT_, symObjAddr: 0x20F8, symBinAddr: 0x10001B628, symSize: 0x90 }
  - { offset: 0xBF33C, size: 0x8, addend: 0x0, symName: __ZNSt3__16vectorIN10ArrowStack5ArrowENS_9allocatorIS2_EEE21__push_back_slow_pathIS2_EEPS2_OT_, symObjAddr: 0x2188, symBinAddr: 0x10001B6B8, symSize: 0xE8 }
  - { offset: 0xBF398, size: 0x8, addend: 0x0, symName: __ZNSt3__117__compressed_pairIPN10ArrowStack5ArrowENS_9allocatorIS2_EEE5firstB8ne180100Ev, symObjAddr: 0x2270, symBinAddr: 0x10001B7A0, symSize: 0x24 }
  - { offset: 0xBF3BE, size: 0x8, addend: 0x0, symName: __ZNSt3__122__compressed_pair_elemIPN10ArrowStack5ArrowELi0ELb0EE5__getB8ne180100Ev, symObjAddr: 0x2294, symBinAddr: 0x10001B7C4, symSize: 0x14 }
  - { offset: 0xBF3FD, size: 0x8, addend: 0x0, symName: __ZNSt3__16vectorIN10ArrowStack5ArrowENS_9allocatorIS2_EEE21_ConstructTransactionC1B8ne180100ERS5_m, symObjAddr: 0x22A8, symBinAddr: 0x10001B7D8, symSize: 0x3C }
  - { offset: 0xBF445, size: 0x8, addend: 0x0, symName: __ZNSt3__116allocator_traitsINS_9allocatorIN10ArrowStack5ArrowEEEE9constructB8ne180100IS3_JS3_EvEEvRS4_PT_DpOT0_, symObjAddr: 0x22E4, symBinAddr: 0x10001B814, symSize: 0x34 }
  - { offset: 0xBF49E, size: 0x8, addend: 0x0, symName: __ZNSt3__16vectorIN10ArrowStack5ArrowENS_9allocatorIS2_EEE21_ConstructTransactionD1B8ne180100Ev, symObjAddr: 0x2318, symBinAddr: 0x10001B848, symSize: 0x2C }
  - { offset: 0xBF4C8, size: 0x8, addend: 0x0, symName: __ZNSt3__16vectorIN10ArrowStack5ArrowENS_9allocatorIS2_EEE21_ConstructTransactionC2B8ne180100ERS5_m, symObjAddr: 0x2344, symBinAddr: 0x10001B874, symSize: 0x4C }
  - { offset: 0xBF510, size: 0x8, addend: 0x0, symName: __ZNSt3__19allocatorIN10ArrowStack5ArrowEE9constructB8ne180100IS2_JS2_EEEvPT_DpOT0_, symObjAddr: 0x2390, symBinAddr: 0x10001B8C0, symSize: 0x30 }
  - { offset: 0xBF568, size: 0x8, addend: 0x0, symName: __ZN10ArrowStack5ArrowC1EOS0_, symObjAddr: 0x23C0, symBinAddr: 0x10001B8F0, symSize: 0x34 }
  - { offset: 0xBF59D, size: 0x8, addend: 0x0, symName: __ZN10ArrowStack5ArrowC2EOS0_, symObjAddr: 0x23F4, symBinAddr: 0x10001B924, symSize: 0x50 }
  - { offset: 0xBF5D7, size: 0x8, addend: 0x0, symName: __ZN2sf6SpriteC1EOS0_, symObjAddr: 0x2444, symBinAddr: 0x10001B974, symSize: 0x34 }
  - { offset: 0xBF60C, size: 0x8, addend: 0x0, symName: __ZN2sf6SpriteC2EOS0_, symObjAddr: 0x2478, symBinAddr: 0x10001B9A8, symSize: 0x78 }
  - { offset: 0xBF641, size: 0x8, addend: 0x0, symName: __ZN2sf8DrawableC2ERKS0_, symObjAddr: 0x24F0, symBinAddr: 0x10001BA20, symSize: 0x28 }
  - { offset: 0xBF67B, size: 0x8, addend: 0x0, symName: __ZN2sf13TransformableC2ERKS0_, symObjAddr: 0x2518, symBinAddr: 0x10001BA48, symSize: 0x50 }
  - { offset: 0xBF6B0, size: 0x8, addend: 0x0, symName: __ZN2sf8DrawableD1Ev, symObjAddr: 0x2568, symBinAddr: 0x10001BA98, symSize: 0x14 }
  - { offset: 0xBF6DA, size: 0x8, addend: 0x0, symName: __ZN2sf8DrawableD0Ev, symObjAddr: 0x257C, symBinAddr: 0x10001BAAC, symSize: 0xC }
  - { offset: 0xBF704, size: 0x8, addend: 0x0, symName: __ZNSt3__16vectorIN10ArrowStack5ArrowENS_9allocatorIS2_EEE21_ConstructTransactionD2B8ne180100Ev, symObjAddr: 0x2588, symBinAddr: 0x10001BAB8, symSize: 0x20 }
  - { offset: 0xBF72E, size: 0x8, addend: 0x0, symName: __ZNKSt3__16vectorIN10ArrowStack5ArrowENS_9allocatorIS2_EEE11__recommendB8ne180100Em, symObjAddr: 0x25A8, symBinAddr: 0x10001BAD8, symSize: 0xAC }
  - { offset: 0xBF783, size: 0x8, addend: 0x0, symName: __ZNKSt3__16vectorIN10ArrowStack5ArrowENS_9allocatorIS2_EEE4sizeB8ne180100Ev, symObjAddr: 0x2654, symBinAddr: 0x10001BB84, symSize: 0x28 }
  - { offset: 0xBF7A9, size: 0x8, addend: 0x0, symName: __ZNSt3__114__split_bufferIN10ArrowStack5ArrowERNS_9allocatorIS2_EEEC1EmmS5_, symObjAddr: 0x267C, symBinAddr: 0x10001BBAC, symSize: 0x44 }
  - { offset: 0xBF7FF, size: 0x8, addend: 0x0, symName: __ZNSt3__114__split_bufferIN10ArrowStack5ArrowERNS_9allocatorIS2_EEED1Ev, symObjAddr: 0x27D0, symBinAddr: 0x10001BD00, symSize: 0x2C }
  - { offset: 0xBF82B, size: 0x8, addend: 0x0, symName: __ZNKSt3__16vectorIN10ArrowStack5ArrowENS_9allocatorIS2_EEE8max_sizeEv, symObjAddr: 0x27FC, symBinAddr: 0x10001BD2C, symSize: 0x60 }
  - { offset: 0xBF853, size: 0x8, addend: 0x0, symName: __ZNKSt3__16vectorIN10ArrowStack5ArrowENS_9allocatorIS2_EEE20__throw_length_errorB8ne180100Ev, symObjAddr: 0x285C, symBinAddr: 0x10001BD8C, symSize: 0x1C }
  - { offset: 0xBF883, size: 0x8, addend: 0x0, symName: __ZNSt3__116allocator_traitsINS_9allocatorIN10ArrowStack5ArrowEEEE8max_sizeB8ne180100IS4_vEEmRKS4_, symObjAddr: 0x28D0, symBinAddr: 0x10001BDA8, symSize: 0x24 }
  - { offset: 0xBF8B1, size: 0x8, addend: 0x0, symName: __ZNKSt3__16vectorIN10ArrowStack5ArrowENS_9allocatorIS2_EEE7__allocB8ne180100Ev, symObjAddr: 0x28F4, symBinAddr: 0x10001BDCC, symSize: 0x28 }
  - { offset: 0xBF8D7, size: 0x8, addend: 0x0, symName: __ZNKSt3__19allocatorIN10ArrowStack5ArrowEE8max_sizeB8ne180100Ev, symObjAddr: 0x29B4, symBinAddr: 0x10001BDF4, symSize: 0x20 }
  - { offset: 0xBF8FD, size: 0x8, addend: 0x0, symName: __ZNKSt3__117__compressed_pairIPN10ArrowStack5ArrowENS_9allocatorIS2_EEE6secondB8ne180100Ev, symObjAddr: 0x29D4, symBinAddr: 0x10001BE14, symSize: 0x24 }
  - { offset: 0xBF923, size: 0x8, addend: 0x0, symName: __ZNKSt3__122__compressed_pair_elemINS_9allocatorIN10ArrowStack5ArrowEEELi1ELb1EE5__getB8ne180100Ev, symObjAddr: 0x29F8, symBinAddr: 0x10001BE38, symSize: 0x14 }
  - { offset: 0xBF949, size: 0x8, addend: 0x0, symName: __ZNSt12length_errorC1B8ne180100EPKc, symObjAddr: 0x2A78, symBinAddr: 0x10001BEB0, symSize: 0x34 }
  - { offset: 0xBF981, size: 0x8, addend: 0x0, symName: __ZNSt12length_errorC2B8ne180100EPKc, symObjAddr: 0x2AAC, symBinAddr: 0x10001BEE4, symSize: 0x44 }
  - { offset: 0xBF9B9, size: 0x8, addend: 0x0, symName: __ZNSt3__114__split_bufferIN10ArrowStack5ArrowERNS_9allocatorIS2_EEEC2EmmS5_, symObjAddr: 0x2B44, symBinAddr: 0x10001BF28, symSize: 0xD8 }
  - { offset: 0xBFA2C, size: 0x8, addend: 0x0, symName: __ZNSt3__117__compressed_pairIPN10ArrowStack5ArrowERNS_9allocatorIS2_EEEC1B8ne180100IDnS6_EEOT_OT0_, symObjAddr: 0x2C1C, symBinAddr: 0x10001C000, symSize: 0x3C }
  - { offset: 0xBFA84, size: 0x8, addend: 0x0, symName: __ZNSt3__114__split_bufferIN10ArrowStack5ArrowERNS_9allocatorIS2_EEE7__allocB8ne180100Ev, symObjAddr: 0x2C98, symBinAddr: 0x10001C07C, symSize: 0x28 }
  - { offset: 0xBFAAA, size: 0x8, addend: 0x0, symName: __ZNSt3__114__split_bufferIN10ArrowStack5ArrowERNS_9allocatorIS2_EEE9__end_capB8ne180100Ev, symObjAddr: 0x2CC0, symBinAddr: 0x10001C0A4, symSize: 0x28 }
  - { offset: 0xBFAD0, size: 0x8, addend: 0x0, symName: __ZNSt3__117__compressed_pairIPN10ArrowStack5ArrowERNS_9allocatorIS2_EEEC2B8ne180100IDnS6_EEOT_OT0_, symObjAddr: 0x2CE8, symBinAddr: 0x10001C0CC, symSize: 0x48 }
  - { offset: 0xBFB28, size: 0x8, addend: 0x0, symName: __ZNSt3__122__compressed_pair_elemIRNS_9allocatorIN10ArrowStack5ArrowEEELi1ELb0EEC2B8ne180100IS5_vEEOT_, symObjAddr: 0x2D30, symBinAddr: 0x10001C114, symSize: 0x20 }
  - { offset: 0xBFB6A, size: 0x8, addend: 0x0, symName: __ZNSt3__19allocatorIN10ArrowStack5ArrowEE8allocateB8ne180100Em, symObjAddr: 0x2D50, symBinAddr: 0x10001C134, symSize: 0x58 }
  - { offset: 0xBFB9E, size: 0x8, addend: 0x0, symName: __ZNSt3__117__compressed_pairIPN10ArrowStack5ArrowERNS_9allocatorIS2_EEE6secondB8ne180100Ev, symObjAddr: 0x2E8C, symBinAddr: 0x10001C18C, symSize: 0x28 }
  - { offset: 0xBFBC4, size: 0x8, addend: 0x0, symName: __ZNSt3__122__compressed_pair_elemIRNS_9allocatorIN10ArrowStack5ArrowEEELi1ELb0EE5__getB8ne180100Ev, symObjAddr: 0x2EB4, symBinAddr: 0x10001C1B4, symSize: 0x18 }
  - { offset: 0xBFBEA, size: 0x8, addend: 0x0, symName: __ZNSt3__117__compressed_pairIPN10ArrowStack5ArrowERNS_9allocatorIS2_EEE5firstB8ne180100Ev, symObjAddr: 0x2ECC, symBinAddr: 0x10001C1CC, symSize: 0x24 }
  - { offset: 0xBFC10, size: 0x8, addend: 0x0, symName: __ZNSt3__116reverse_iteratorIPN10ArrowStack5ArrowEEC1B8ne180100ES3_, symObjAddr: 0x301C, symBinAddr: 0x10001C31C, symSize: 0x34 }
  - { offset: 0xBFC48, size: 0x8, addend: 0x0, symName: __ZNKSt3__116reverse_iteratorIPN10ArrowStack5ArrowEE4baseB8ne180100Ev, symObjAddr: 0x3050, symBinAddr: 0x10001C350, symSize: 0x18 }
  - { offset: 0xBFC6E, size: 0x8, addend: 0x0, symName: __ZNKSt3__16vectorIN10ArrowStack5ArrowENS_9allocatorIS2_EEE14__annotate_newB8ne180100Em, symObjAddr: 0x30A4, symBinAddr: 0x10001C3A4, symSize: 0x14 }
  - { offset: 0xBFCA3, size: 0x8, addend: 0x0, symName: __ZNSt3__129_AllocatorDestroyRangeReverseINS_9allocatorIN10ArrowStack5ArrowEEENS_16reverse_iteratorIPS3_EEEC1B8ne180100ERS4_RS7_SA_, symObjAddr: 0x3104, symBinAddr: 0x10001C404, symSize: 0x44 }
  - { offset: 0xBFCFA, size: 0x8, addend: 0x0, symName: __ZNKSt3__116reverse_iteratorIPN10ArrowStack5ArrowEEdeB8ne180100Ev, symObjAddr: 0x31B0, symBinAddr: 0x10001C4B0, symSize: 0x28 }
  - { offset: 0xBFD2E, size: 0x8, addend: 0x0, symName: __ZNSt3__116reverse_iteratorIPN10ArrowStack5ArrowEEppB8ne180100Ev, symObjAddr: 0x31D8, symBinAddr: 0x10001C4D8, symSize: 0x20 }
  - { offset: 0xBFD54, size: 0x8, addend: 0x0, symName: __ZNSt3__128__exception_guard_exceptionsINS_29_AllocatorDestroyRangeReverseINS_9allocatorIN10ArrowStack5ArrowEEENS_16reverse_iteratorIPS4_EEEEE10__completeB8ne180100Ev, symObjAddr: 0x31F8, symBinAddr: 0x10001C4F8, symSize: 0x1C }
  - { offset: 0xBFD7A, size: 0x8, addend: 0x0, symName: __ZNSt3__128__exception_guard_exceptionsINS_29_AllocatorDestroyRangeReverseINS_9allocatorIN10ArrowStack5ArrowEEENS_16reverse_iteratorIPS4_EEEEED1B8ne180100Ev, symObjAddr: 0x3214, symBinAddr: 0x10001C514, symSize: 0x2C }
  - { offset: 0xBFDA4, size: 0x8, addend: 0x0, symName: __ZNSt3__128__exception_guard_exceptionsINS_29_AllocatorDestroyRangeReverseINS_9allocatorIN10ArrowStack5ArrowEEENS_16reverse_iteratorIPS4_EEEEEC1B8ne180100ES9_, symObjAddr: 0x3240, symBinAddr: 0x10001C540, symSize: 0x34 }
  - { offset: 0xBFDDD, size: 0x8, addend: 0x0, symName: __ZNSt3__128__exception_guard_exceptionsINS_29_AllocatorDestroyRangeReverseINS_9allocatorIN10ArrowStack5ArrowEEENS_16reverse_iteratorIPS4_EEEEEC2B8ne180100ES9_, symObjAddr: 0x3274, symBinAddr: 0x10001C574, symSize: 0x30 }
  - { offset: 0xBFE16, size: 0x8, addend: 0x0, symName: __ZNSt3__129_AllocatorDestroyRangeReverseINS_9allocatorIN10ArrowStack5ArrowEEENS_16reverse_iteratorIPS3_EEEC2B8ne180100ERS4_RS7_SA_, symObjAddr: 0x32A4, symBinAddr: 0x10001C5A4, symSize: 0x38 }
  - { offset: 0xBFE72, size: 0x8, addend: 0x0, symName: __ZNSt3__119__to_address_helperINS_16reverse_iteratorIPN10ArrowStack5ArrowEEEvE6__callB8ne180100ERKS5_, symObjAddr: 0x32DC, symBinAddr: 0x10001C5DC, symSize: 0x38 }
  - { offset: 0xBFE95, size: 0x8, addend: 0x0, symName: __ZNKSt3__116reverse_iteratorIPN10ArrowStack5ArrowEEptB8ne180100Ev, symObjAddr: 0x3314, symBinAddr: 0x10001C614, symSize: 0x24 }
  - { offset: 0xBFEBB, size: 0x8, addend: 0x0, symName: __ZNSt3__128__exception_guard_exceptionsINS_29_AllocatorDestroyRangeReverseINS_9allocatorIN10ArrowStack5ArrowEEENS_16reverse_iteratorIPS4_EEEEED2B8ne180100Ev, symObjAddr: 0x3338, symBinAddr: 0x10001C638, symSize: 0x50 }
  - { offset: 0xBFEE5, size: 0x8, addend: 0x0, symName: __ZNKSt3__129_AllocatorDestroyRangeReverseINS_9allocatorIN10ArrowStack5ArrowEEENS_16reverse_iteratorIPS3_EEEclB8ne180100Ev, symObjAddr: 0x3388, symBinAddr: 0x10001C688, symSize: 0xB0 }
  - { offset: 0xBFF0C, size: 0x8, addend: 0x0, symName: __ZNSt3__116reverse_iteratorINS0_IPN10ArrowStack5ArrowEEEEC1B8ne180100ES4_, symObjAddr: 0x34A8, symBinAddr: 0x10001C7A8, symSize: 0x3C }
  - { offset: 0xBFF44, size: 0x8, addend: 0x0, symName: __ZNSt3__116reverse_iteratorINS0_IPN10ArrowStack5ArrowEEEEppB8ne180100Ev, symObjAddr: 0x3564, symBinAddr: 0x10001C864, symSize: 0x30 }
  - { offset: 0xBFF6A, size: 0x8, addend: 0x0, symName: __ZNKSt3__116reverse_iteratorINS0_IPN10ArrowStack5ArrowEEEE4baseB8ne180100Ev, symObjAddr: 0x3594, symBinAddr: 0x10001C894, symSize: 0x24 }
  - { offset: 0xBFF95, size: 0x8, addend: 0x0, symName: __ZNSt3__119__to_address_helperINS_16reverse_iteratorINS1_IPN10ArrowStack5ArrowEEEEEvE6__callB8ne180100ERKS6_, symObjAddr: 0x35B8, symBinAddr: 0x10001C8B8, symSize: 0x38 }
  - { offset: 0xBFFB8, size: 0x8, addend: 0x0, symName: __ZNKSt3__116reverse_iteratorINS0_IPN10ArrowStack5ArrowEEEEptB8ne180100Ev, symObjAddr: 0x35F0, symBinAddr: 0x10001C8F0, symSize: 0x24 }
  - { offset: 0xBFFDE, size: 0x8, addend: 0x0, symName: __ZNKSt3__116reverse_iteratorINS0_IPN10ArrowStack5ArrowEEEEdeB8ne180100Ev, symObjAddr: 0x3614, symBinAddr: 0x10001C914, symSize: 0x34 }
  - { offset: 0xC0012, size: 0x8, addend: 0x0, symName: __ZNSt3__116reverse_iteratorIPN10ArrowStack5ArrowEEmmB8ne180100Ev, symObjAddr: 0x3648, symBinAddr: 0x10001C948, symSize: 0x20 }
  - { offset: 0xC0038, size: 0x8, addend: 0x0, symName: __ZNSt3__116reverse_iteratorINS0_IPN10ArrowStack5ArrowEEEEC2B8ne180100ES4_, symObjAddr: 0x3668, symBinAddr: 0x10001C968, symSize: 0x2C }
  - { offset: 0xC0070, size: 0x8, addend: 0x0, symName: __ZNSt3__116reverse_iteratorIPN10ArrowStack5ArrowEEC2B8ne180100ES3_, symObjAddr: 0x3694, symBinAddr: 0x10001C994, symSize: 0x28 }
  - { offset: 0xC00A8, size: 0x8, addend: 0x0, symName: __ZNSt3__114__split_bufferIN10ArrowStack5ArrowERNS_9allocatorIS2_EEED2Ev, symObjAddr: 0x36BC, symBinAddr: 0x10001C9BC, symSize: 0x84 }
  - { offset: 0xC00D4, size: 0x8, addend: 0x0, symName: __ZNSt3__114__split_bufferIN10ArrowStack5ArrowERNS_9allocatorIS2_EEE5clearB8ne180100Ev, symObjAddr: 0x3740, symBinAddr: 0x10001CA40, symSize: 0x28 }
  - { offset: 0xC00FA, size: 0x8, addend: 0x0, symName: __ZNKSt3__114__split_bufferIN10ArrowStack5ArrowERNS_9allocatorIS2_EEE8capacityB8ne180100Ev, symObjAddr: 0x3768, symBinAddr: 0x10001CA68, symSize: 0x40 }
  - { offset: 0xC0120, size: 0x8, addend: 0x0, symName: __ZNSt3__114__split_bufferIN10ArrowStack5ArrowERNS_9allocatorIS2_EEE17__destruct_at_endB8ne180100EPS2_, symObjAddr: 0x37A8, symBinAddr: 0x10001CAA8, symSize: 0x2C }
  - { offset: 0xC0154, size: 0x8, addend: 0x0, symName: __ZNSt3__114__split_bufferIN10ArrowStack5ArrowERNS_9allocatorIS2_EEE17__destruct_at_endB8ne180100EPS2_NS_17integral_constantIbLb0EEE, symObjAddr: 0x37D4, symBinAddr: 0x10001CAD4, symSize: 0x7C }
  - { offset: 0xC0195, size: 0x8, addend: 0x0, symName: __ZNKSt3__114__split_bufferIN10ArrowStack5ArrowERNS_9allocatorIS2_EEE9__end_capB8ne180100Ev, symObjAddr: 0x3850, symBinAddr: 0x10001CB50, symSize: 0x28 }
  - { offset: 0xC01BB, size: 0x8, addend: 0x0, symName: __ZNKSt3__117__compressed_pairIPN10ArrowStack5ArrowERNS_9allocatorIS2_EEE5firstB8ne180100Ev, symObjAddr: 0x3878, symBinAddr: 0x10001CB78, symSize: 0x24 }
  - { offset: 0xC01E1, size: 0x8, addend: 0x0, symName: __ZNSt3__16vectorIN10ArrowStack5ArrowENS_9allocatorIS2_EEE11__make_iterB8ne180100EPS2_, symObjAddr: 0x389C, symBinAddr: 0x10001CB9C, symSize: 0x30 }
  - { offset: 0xC0216, size: 0x8, addend: 0x0, symName: __ZNSt3__111__wrap_iterIPN10ArrowStack5ArrowEEC1B8ne180100ES3_, symObjAddr: 0x38CC, symBinAddr: 0x10001CBCC, symSize: 0x34 }
  - { offset: 0xC024E, size: 0x8, addend: 0x0, symName: __ZNSt3__111__wrap_iterIPN10ArrowStack5ArrowEEC2B8ne180100ES3_, symObjAddr: 0x3900, symBinAddr: 0x10001CC00, symSize: 0x20 }
  - { offset: 0xC205E, size: 0x8, addend: 0x0, symName: __ZN8Textures9PlayerBowE, symObjAddr: 0x3CCF8, symBinAddr: 0x100024010, symSize: 0x0 }
  - { offset: 0xC8CC0, size: 0x8, addend: 0x0, symName: __ZN8Textures10PlayerWalkE, symObjAddr: 0x3CD20, symBinAddr: 0x100024038, symSize: 0x0 }
  - { offset: 0xC8CD4, size: 0x8, addend: 0x0, symName: __ZN8Textures5SpareE, symObjAddr: 0x3CD48, symBinAddr: 0x100024060, symSize: 0x0 }
  - { offset: 0xC8CE8, size: 0x8, addend: 0x0, symName: __ZN8Textures8SkeletonE, symObjAddr: 0x3CD70, symBinAddr: 0x100024088, symSize: 0x0 }
  - { offset: 0xC8CFC, size: 0x8, addend: 0x0, symName: __ZN8Textures12SkeletonDeadE, symObjAddr: 0x3CD98, symBinAddr: 0x1000240B0, symSize: 0x0 }
  - { offset: 0xC8D10, size: 0x8, addend: 0x0, symName: __ZN8Textures5ArielE, symObjAddr: 0x3CDC0, symBinAddr: 0x1000240D8, symSize: 0x0 }
  - { offset: 0xC8D1E, size: 0x8, addend: 0x0, symName: __ZN8TexturesC2Ev, symObjAddr: 0x0, symBinAddr: 0x10001CC20, symSize: 0x224 }
  - { offset: 0xC8D4F, size: 0x8, addend: 0x0, symName: __ZN8TexturesC1Ev, symObjAddr: 0x284, symBinAddr: 0x10001CE44, symSize: 0x2C }
  - { offset: 0xCAAD4, size: 0x8, addend: 0x0, symName: __ZN4Math15normalizeVectorERN2sf7Vector2IfEE, symObjAddr: 0x0, symBinAddr: 0x10001D018, symSize: 0x58 }
  - { offset: 0xCAB08, size: 0x8, addend: 0x0, symName: __ZN2sfdVIfEERNS_7Vector2IT_EES4_S2_, symObjAddr: 0x70, symBinAddr: 0x10001D088, symSize: 0x40 }
  - { offset: 0xCAB54, size: 0x8, addend: 0x0, symName: __ZN4Math15normalizeVectorERN2sf7Vector2IfEE, symObjAddr: 0x0, symBinAddr: 0x10001D018, symSize: 0x58 }
  - { offset: 0xCAB96, size: 0x8, addend: 0x0, symName: __ZNSt3__16__math4sqrtB8ne180100Ef, symObjAddr: 0x58, symBinAddr: 0x10001D070, symSize: 0x18 }
...
